
.//addd.elf:     file format elf32-sparc


Disassembly of section .text:

00000000 <start>:
       0:	9c 10 20 00 	clr  %sp
       4:	bc 10 00 00 	mov  %g0, %fp
       8:	9c 10 3f 00 	mov  -256, %sp
       c:	bc 10 3f f8 	mov  -8, %fp
      10:	a0 10 20 01 	mov  1, %l0
      14:	81 94 20 00 	mov  %l0, %wim
      18:	21 00 00 0c 	sethi  %hi(0x3000), %l0
      1c:	a0 14 20 00 	mov  %l0, %l0	! 3000 <trap_table_base>
      20:	81 9c 20 00 	mov  %l0, %tbr
      24:	40 00 00 f7 	call  400 <page_table_setup>
      28:	01 00 00 00 	nop 
      2c:	40 00 01 23 	call  4b8 <set_context_table_pointer>
      30:	01 00 00 00 	nop 
      34:	21 00 00 04 	sethi  %hi(0x1000), %l0
      38:	a0 14 20 e0 	or  %l0, 0xe0, %l0	! 10e0 <PAGE_TABLE_BASE+0x8e0>
      3c:	81 88 00 10 	mov  %l0, %psr
      40:	90 10 20 01 	mov  1, %o0
      44:	d0 a0 00 80 	sta  %o0, [ %g0 ] #ASI_N
      48:	40 00 0f ee 	call  4000 <main>
      4c:	01 00 00 00 	nop 
      50:	91 d0 20 00 	ta  0
	...

00000400 <page_table_setup>:
     400:	03 00 00 02 	sethi  %hi(0x800), %g1
     404:	82 10 60 00 	mov  %g1, %g1	! 800 <PAGE_TABLE_BASE>
     408:	88 10 24 00 	mov  0x400, %g4
     40c:	88 00 40 04 	add  %g1, %g4, %g4
     410:	89 31 20 04 	srl  %g4, 4, %g4
     414:	88 11 20 01 	or  %g4, 1, %g4
     418:	8a 10 28 00 	mov  0x800, %g5
     41c:	86 01 40 01 	add  %g5, %g1, %g3
     420:	c8 20 c0 00 	st  %g4, [ %g3 ]
     424:	84 10 20 8e 	mov  0x8e, %g2
     428:	8a 10 24 00 	mov  0x400, %g5
     42c:	86 01 40 01 	add  %g5, %g1, %g3
     430:	c4 20 c0 00 	st  %g2, [ %g3 ]
     434:	88 10 20 00 	clr  %g4
     438:	88 00 40 04 	add  %g1, %g4, %g4
     43c:	89 31 20 04 	srl  %g4, 4, %g4
     440:	88 11 20 01 	or  %g4, 1, %g4
     444:	8a 10 25 00 	mov  0x500, %g5
     448:	86 01 40 01 	add  %g5, %g1, %g3
     44c:	c8 20 c0 00 	st  %g4, [ %g3 ]
     450:	05 00 00 20 	sethi  %hi(0x8000), %g2
     454:	84 10 a0 8e 	or  %g2, 0x8e, %g2	! 808e <ajit_barebones_clock+0x1662>
     458:	8a 10 20 00 	clr  %g5
     45c:	86 01 40 01 	add  %g5, %g1, %g3
     460:	c4 20 c0 00 	st  %g2, [ %g3 ]
     464:	88 10 22 00 	mov  0x200, %g4
     468:	88 00 40 04 	add  %g1, %g4, %g4
     46c:	89 31 20 04 	srl  %g4, 4, %g4
     470:	88 11 20 01 	or  %g4, 1, %g4
     474:	8a 10 27 fc 	mov  0x7fc, %g5
     478:	86 01 40 01 	add  %g5, %g1, %g3
     47c:	c8 20 c0 00 	st  %g4, [ %g3 ]
     480:	88 10 21 00 	mov  0x100, %g4
     484:	88 00 40 04 	add  %g1, %g4, %g4
     488:	89 31 20 04 	srl  %g4, 4, %g4
     48c:	88 11 20 01 	or  %g4, 1, %g4
     490:	8a 10 22 fc 	mov  0x2fc, %g5
     494:	86 01 40 01 	add  %g5, %g1, %g3
     498:	c8 20 c0 00 	st  %g4, [ %g3 ]
     49c:	05 00 00 3f 	sethi  %hi(0xfc00), %g2
     4a0:	84 10 a3 8e 	or  %g2, 0x38e, %g2	! ff8e <ajit_barebones_clock+0x9562>
     4a4:	8a 10 21 fc 	mov  0x1fc, %g5
     4a8:	86 01 40 01 	add  %g5, %g1, %g3
     4ac:	c4 20 c0 00 	st  %g2, [ %g3 ]
     4b0:	81 c3 e0 08 	retl 
     4b4:	01 00 00 00 	nop 

000004b8 <set_context_table_pointer>:
     4b8:	03 00 00 02 	sethi  %hi(0x800), %g1
     4bc:	82 10 60 00 	mov  %g1, %g1	! 800 <PAGE_TABLE_BASE>
     4c0:	8a 10 28 00 	mov  0x800, %g5
     4c4:	84 01 40 01 	add  %g5, %g1, %g2
     4c8:	85 30 a0 04 	srl  %g2, 4, %g2
     4cc:	84 10 a0 01 	or  %g2, 1, %g2
     4d0:	86 10 21 00 	mov  0x100, %g3
     4d4:	c4 a0 c0 80 	sta  %g2, [ %g3 ] #ASI_N
     4d8:	81 c3 e0 08 	retl 
     4dc:	01 00 00 00 	nop 
     4e0:	01 00 00 00 	nop 
     4e4:	01 00 00 00 	nop 
     4e8:	01 00 00 00 	nop 
     4ec:	01 00 00 00 	nop 
     4f0:	01 00 00 00 	nop 
     4f4:	01 00 00 00 	nop 
     4f8:	01 00 00 00 	nop 
     4fc:	01 00 00 00 	nop 
     500:	01 00 00 00 	nop 
     504:	01 00 00 00 	nop 
     508:	01 00 00 00 	nop 
     50c:	01 00 00 00 	nop 
     510:	01 00 00 00 	nop 
     514:	01 00 00 00 	nop 
     518:	01 00 00 00 	nop 
     51c:	01 00 00 00 	nop 
     520:	01 00 00 00 	nop 
     524:	01 00 00 00 	nop 
     528:	01 00 00 00 	nop 
     52c:	01 00 00 00 	nop 
     530:	01 00 00 00 	nop 
     534:	01 00 00 00 	nop 
     538:	01 00 00 00 	nop 
     53c:	01 00 00 00 	nop 
     540:	01 00 00 00 	nop 
     544:	01 00 00 00 	nop 
     548:	01 00 00 00 	nop 
     54c:	01 00 00 00 	nop 
     550:	01 00 00 00 	nop 
     554:	01 00 00 00 	nop 
     558:	01 00 00 00 	nop 
     55c:	01 00 00 00 	nop 
     560:	01 00 00 00 	nop 
     564:	01 00 00 00 	nop 
     568:	01 00 00 00 	nop 
     56c:	01 00 00 00 	nop 
     570:	01 00 00 00 	nop 
     574:	01 00 00 00 	nop 
     578:	01 00 00 00 	nop 
     57c:	01 00 00 00 	nop 
     580:	01 00 00 00 	nop 
     584:	01 00 00 00 	nop 
     588:	01 00 00 00 	nop 
     58c:	01 00 00 00 	nop 
     590:	01 00 00 00 	nop 
     594:	01 00 00 00 	nop 
     598:	01 00 00 00 	nop 
     59c:	01 00 00 00 	nop 
     5a0:	01 00 00 00 	nop 
     5a4:	01 00 00 00 	nop 
     5a8:	01 00 00 00 	nop 
     5ac:	01 00 00 00 	nop 
     5b0:	01 00 00 00 	nop 
     5b4:	01 00 00 00 	nop 
     5b8:	01 00 00 00 	nop 
     5bc:	01 00 00 00 	nop 
     5c0:	01 00 00 00 	nop 
     5c4:	01 00 00 00 	nop 
     5c8:	01 00 00 00 	nop 
     5cc:	01 00 00 00 	nop 
     5d0:	01 00 00 00 	nop 
     5d4:	01 00 00 00 	nop 
     5d8:	01 00 00 00 	nop 
     5dc:	01 00 00 00 	nop 
     5e0:	01 00 00 00 	nop 
     5e4:	01 00 00 00 	nop 
     5e8:	01 00 00 00 	nop 
     5ec:	01 00 00 00 	nop 
     5f0:	01 00 00 00 	nop 
     5f4:	01 00 00 00 	nop 
     5f8:	01 00 00 00 	nop 
     5fc:	01 00 00 00 	nop 
     600:	01 00 00 00 	nop 
     604:	01 00 00 00 	nop 
     608:	01 00 00 00 	nop 
     60c:	01 00 00 00 	nop 
     610:	01 00 00 00 	nop 
     614:	01 00 00 00 	nop 
     618:	01 00 00 00 	nop 
     61c:	01 00 00 00 	nop 
     620:	01 00 00 00 	nop 
     624:	01 00 00 00 	nop 
     628:	01 00 00 00 	nop 
     62c:	01 00 00 00 	nop 
     630:	01 00 00 00 	nop 
     634:	01 00 00 00 	nop 
     638:	01 00 00 00 	nop 
     63c:	01 00 00 00 	nop 
     640:	01 00 00 00 	nop 
     644:	01 00 00 00 	nop 
     648:	01 00 00 00 	nop 
     64c:	01 00 00 00 	nop 
     650:	01 00 00 00 	nop 
     654:	01 00 00 00 	nop 
     658:	01 00 00 00 	nop 
     65c:	01 00 00 00 	nop 
     660:	01 00 00 00 	nop 
     664:	01 00 00 00 	nop 
     668:	01 00 00 00 	nop 
     66c:	01 00 00 00 	nop 
     670:	01 00 00 00 	nop 
     674:	01 00 00 00 	nop 
     678:	01 00 00 00 	nop 
     67c:	01 00 00 00 	nop 
     680:	01 00 00 00 	nop 
     684:	01 00 00 00 	nop 
     688:	01 00 00 00 	nop 
     68c:	01 00 00 00 	nop 
     690:	01 00 00 00 	nop 
     694:	01 00 00 00 	nop 
     698:	01 00 00 00 	nop 
     69c:	01 00 00 00 	nop 
     6a0:	01 00 00 00 	nop 
     6a4:	01 00 00 00 	nop 
     6a8:	01 00 00 00 	nop 
     6ac:	01 00 00 00 	nop 
     6b0:	01 00 00 00 	nop 
     6b4:	01 00 00 00 	nop 
     6b8:	01 00 00 00 	nop 
     6bc:	01 00 00 00 	nop 
     6c0:	01 00 00 00 	nop 
     6c4:	01 00 00 00 	nop 
     6c8:	01 00 00 00 	nop 
     6cc:	01 00 00 00 	nop 
     6d0:	01 00 00 00 	nop 
     6d4:	01 00 00 00 	nop 
     6d8:	01 00 00 00 	nop 
     6dc:	01 00 00 00 	nop 
     6e0:	01 00 00 00 	nop 
     6e4:	01 00 00 00 	nop 
     6e8:	01 00 00 00 	nop 
     6ec:	01 00 00 00 	nop 
     6f0:	01 00 00 00 	nop 
     6f4:	01 00 00 00 	nop 
     6f8:	01 00 00 00 	nop 
     6fc:	01 00 00 00 	nop 
     700:	01 00 00 00 	nop 
     704:	01 00 00 00 	nop 
     708:	01 00 00 00 	nop 
     70c:	01 00 00 00 	nop 
     710:	01 00 00 00 	nop 
     714:	01 00 00 00 	nop 
     718:	01 00 00 00 	nop 
     71c:	01 00 00 00 	nop 
     720:	01 00 00 00 	nop 
     724:	01 00 00 00 	nop 
     728:	01 00 00 00 	nop 
     72c:	01 00 00 00 	nop 
     730:	01 00 00 00 	nop 
     734:	01 00 00 00 	nop 
     738:	01 00 00 00 	nop 
     73c:	01 00 00 00 	nop 
     740:	01 00 00 00 	nop 
     744:	01 00 00 00 	nop 
     748:	01 00 00 00 	nop 
     74c:	01 00 00 00 	nop 
     750:	01 00 00 00 	nop 
     754:	01 00 00 00 	nop 
     758:	01 00 00 00 	nop 
     75c:	01 00 00 00 	nop 
     760:	01 00 00 00 	nop 
     764:	01 00 00 00 	nop 
     768:	01 00 00 00 	nop 
     76c:	01 00 00 00 	nop 
     770:	01 00 00 00 	nop 
     774:	01 00 00 00 	nop 
     778:	01 00 00 00 	nop 
     77c:	01 00 00 00 	nop 
     780:	01 00 00 00 	nop 
     784:	01 00 00 00 	nop 
     788:	01 00 00 00 	nop 
     78c:	01 00 00 00 	nop 
     790:	01 00 00 00 	nop 
     794:	01 00 00 00 	nop 
     798:	01 00 00 00 	nop 
     79c:	01 00 00 00 	nop 
     7a0:	01 00 00 00 	nop 
     7a4:	01 00 00 00 	nop 
     7a8:	01 00 00 00 	nop 
     7ac:	01 00 00 00 	nop 
     7b0:	01 00 00 00 	nop 
     7b4:	01 00 00 00 	nop 
     7b8:	01 00 00 00 	nop 
     7bc:	01 00 00 00 	nop 
     7c0:	01 00 00 00 	nop 
     7c4:	01 00 00 00 	nop 
     7c8:	01 00 00 00 	nop 
     7cc:	01 00 00 00 	nop 
     7d0:	01 00 00 00 	nop 
     7d4:	01 00 00 00 	nop 
     7d8:	01 00 00 00 	nop 
     7dc:	01 00 00 00 	nop 
     7e0:	01 00 00 00 	nop 
     7e4:	01 00 00 00 	nop 
     7e8:	01 00 00 00 	nop 
     7ec:	01 00 00 00 	nop 
     7f0:	01 00 00 00 	nop 
     7f4:	01 00 00 00 	nop 
     7f8:	01 00 00 00 	nop 
     7fc:	01 00 00 00 	nop 

00000800 <PAGE_TABLE_BASE>:
	...

00002000 <window_overflow_trap_handler>:
    2000:	a7 50 00 00 	rd  %wim, %l3
    2004:	a9 2c e0 07 	sll  %l3, 7, %l4
    2008:	a7 34 e0 01 	srl  %l3, 1, %l3
    200c:	a6 14 c0 14 	or  %l3, %l4, %l3
    2010:	a6 0c e0 ff 	and  %l3, 0xff, %l3
    2014:	81 90 00 00 	mov  %g0, %wim
    2018:	01 00 00 00 	nop 
    201c:	01 00 00 00 	nop 
    2020:	01 00 00 00 	nop 
    2024:	81 e0 00 00 	save 
    2028:	e0 3b a0 00 	std  %l0, [ %sp ]
    202c:	e4 3b a0 08 	std  %l2, [ %sp + 8 ]
    2030:	e8 3b a0 10 	std  %l4, [ %sp + 0x10 ]
    2034:	ec 3b a0 18 	std  %l6, [ %sp + 0x18 ]
    2038:	f0 3b a0 20 	std  %i0, [ %sp + 0x20 ]
    203c:	f4 3b a0 28 	std  %i2, [ %sp + 0x28 ]
    2040:	f8 3b a0 30 	std  %i4, [ %sp + 0x30 ]
    2044:	fc 3b a0 38 	std  %fp, [ %sp + 0x38 ]
    2048:	81 e8 00 00 	restore 
    204c:	81 90 00 13 	mov  %l3, %wim
    2050:	01 00 00 00 	nop 
    2054:	01 00 00 00 	nop 
    2058:	01 00 00 00 	nop 
    205c:	81 c4 40 00 	jmp  %l1
    2060:	81 cc 80 00 	rett  %l2

00002064 <window_underflow_trap_handler>:
    2064:	a7 50 00 00 	rd  %wim, %l3
    2068:	a9 34 e0 07 	srl  %l3, 7, %l4
    206c:	a7 2c e0 01 	sll  %l3, 1, %l3
    2070:	a6 14 c0 14 	or  %l3, %l4, %l3
    2074:	a6 0c e0 ff 	and  %l3, 0xff, %l3
    2078:	81 90 00 00 	mov  %g0, %wim
    207c:	01 00 00 00 	nop 
    2080:	01 00 00 00 	nop 
    2084:	01 00 00 00 	nop 
    2088:	81 e8 00 00 	restore 
    208c:	81 e8 00 00 	restore 
    2090:	e0 1b a0 00 	ldd  [ %sp ], %l0
    2094:	e4 1b a0 08 	ldd  [ %sp + 8 ], %l2
    2098:	e8 1b a0 10 	ldd  [ %sp + 0x10 ], %l4
    209c:	ec 1b a0 18 	ldd  [ %sp + 0x18 ], %l6
    20a0:	f0 1b a0 20 	ldd  [ %sp + 0x20 ], %i0
    20a4:	f4 1b a0 28 	ldd  [ %sp + 0x28 ], %i2
    20a8:	f8 1b a0 30 	ldd  [ %sp + 0x30 ], %i4
    20ac:	fc 1b a0 38 	ldd  [ %sp + 0x38 ], %fp
    20b0:	81 e0 00 00 	save 
    20b4:	81 e0 00 00 	save 
    20b8:	81 90 00 13 	mov  %l3, %wim
    20bc:	01 00 00 00 	nop 
    20c0:	01 00 00 00 	nop 
    20c4:	01 00 00 00 	nop 
    20c8:	81 c4 40 00 	jmp  %l1
    20cc:	81 cc 80 00 	rett  %l2
    20d0:	01 00 00 00 	nop 
    20d4:	01 00 00 00 	nop 
    20d8:	01 00 00 00 	nop 
    20dc:	01 00 00 00 	nop 
    20e0:	01 00 00 00 	nop 
    20e4:	01 00 00 00 	nop 
    20e8:	01 00 00 00 	nop 
    20ec:	01 00 00 00 	nop 
    20f0:	01 00 00 00 	nop 
    20f4:	01 00 00 00 	nop 
    20f8:	01 00 00 00 	nop 
    20fc:	01 00 00 00 	nop 
    2100:	01 00 00 00 	nop 
    2104:	01 00 00 00 	nop 
    2108:	01 00 00 00 	nop 
    210c:	01 00 00 00 	nop 
    2110:	01 00 00 00 	nop 
    2114:	01 00 00 00 	nop 
    2118:	01 00 00 00 	nop 
    211c:	01 00 00 00 	nop 
    2120:	01 00 00 00 	nop 
    2124:	01 00 00 00 	nop 
    2128:	01 00 00 00 	nop 
    212c:	01 00 00 00 	nop 
    2130:	01 00 00 00 	nop 
    2134:	01 00 00 00 	nop 
    2138:	01 00 00 00 	nop 
    213c:	01 00 00 00 	nop 
    2140:	01 00 00 00 	nop 
    2144:	01 00 00 00 	nop 
    2148:	01 00 00 00 	nop 
    214c:	01 00 00 00 	nop 
    2150:	01 00 00 00 	nop 
    2154:	01 00 00 00 	nop 
    2158:	01 00 00 00 	nop 
    215c:	01 00 00 00 	nop 
    2160:	01 00 00 00 	nop 
    2164:	01 00 00 00 	nop 
    2168:	01 00 00 00 	nop 
    216c:	01 00 00 00 	nop 
    2170:	01 00 00 00 	nop 
    2174:	01 00 00 00 	nop 
    2178:	01 00 00 00 	nop 
    217c:	01 00 00 00 	nop 
    2180:	01 00 00 00 	nop 
    2184:	01 00 00 00 	nop 
    2188:	01 00 00 00 	nop 
    218c:	01 00 00 00 	nop 
    2190:	01 00 00 00 	nop 
    2194:	01 00 00 00 	nop 
    2198:	01 00 00 00 	nop 
    219c:	01 00 00 00 	nop 
    21a0:	01 00 00 00 	nop 
    21a4:	01 00 00 00 	nop 
    21a8:	01 00 00 00 	nop 
    21ac:	01 00 00 00 	nop 
    21b0:	01 00 00 00 	nop 
    21b4:	01 00 00 00 	nop 
    21b8:	01 00 00 00 	nop 
    21bc:	01 00 00 00 	nop 
    21c0:	01 00 00 00 	nop 
    21c4:	01 00 00 00 	nop 
    21c8:	01 00 00 00 	nop 
    21cc:	01 00 00 00 	nop 
    21d0:	01 00 00 00 	nop 
    21d4:	01 00 00 00 	nop 
    21d8:	01 00 00 00 	nop 
    21dc:	01 00 00 00 	nop 
    21e0:	01 00 00 00 	nop 
    21e4:	01 00 00 00 	nop 
    21e8:	01 00 00 00 	nop 
    21ec:	01 00 00 00 	nop 
    21f0:	01 00 00 00 	nop 
    21f4:	01 00 00 00 	nop 
    21f8:	01 00 00 00 	nop 
    21fc:	01 00 00 00 	nop 
    2200:	01 00 00 00 	nop 
    2204:	01 00 00 00 	nop 
    2208:	01 00 00 00 	nop 
    220c:	01 00 00 00 	nop 
    2210:	01 00 00 00 	nop 
    2214:	01 00 00 00 	nop 
    2218:	01 00 00 00 	nop 
    221c:	01 00 00 00 	nop 
    2220:	01 00 00 00 	nop 
    2224:	01 00 00 00 	nop 
    2228:	01 00 00 00 	nop 
    222c:	01 00 00 00 	nop 
    2230:	01 00 00 00 	nop 
    2234:	01 00 00 00 	nop 
    2238:	01 00 00 00 	nop 
    223c:	01 00 00 00 	nop 
    2240:	01 00 00 00 	nop 
    2244:	01 00 00 00 	nop 
    2248:	01 00 00 00 	nop 
    224c:	01 00 00 00 	nop 
    2250:	01 00 00 00 	nop 
    2254:	01 00 00 00 	nop 
    2258:	01 00 00 00 	nop 
    225c:	01 00 00 00 	nop 
    2260:	01 00 00 00 	nop 
    2264:	01 00 00 00 	nop 
    2268:	01 00 00 00 	nop 
    226c:	01 00 00 00 	nop 
    2270:	01 00 00 00 	nop 
    2274:	01 00 00 00 	nop 
    2278:	01 00 00 00 	nop 
    227c:	01 00 00 00 	nop 
    2280:	01 00 00 00 	nop 
    2284:	01 00 00 00 	nop 
    2288:	01 00 00 00 	nop 
    228c:	01 00 00 00 	nop 
    2290:	01 00 00 00 	nop 
    2294:	01 00 00 00 	nop 
    2298:	01 00 00 00 	nop 
    229c:	01 00 00 00 	nop 
    22a0:	01 00 00 00 	nop 
    22a4:	01 00 00 00 	nop 
    22a8:	01 00 00 00 	nop 
    22ac:	01 00 00 00 	nop 
    22b0:	01 00 00 00 	nop 
    22b4:	01 00 00 00 	nop 
    22b8:	01 00 00 00 	nop 
    22bc:	01 00 00 00 	nop 
    22c0:	01 00 00 00 	nop 
    22c4:	01 00 00 00 	nop 
    22c8:	01 00 00 00 	nop 
    22cc:	01 00 00 00 	nop 
    22d0:	01 00 00 00 	nop 
    22d4:	01 00 00 00 	nop 
    22d8:	01 00 00 00 	nop 
    22dc:	01 00 00 00 	nop 
    22e0:	01 00 00 00 	nop 
    22e4:	01 00 00 00 	nop 
    22e8:	01 00 00 00 	nop 
    22ec:	01 00 00 00 	nop 
    22f0:	01 00 00 00 	nop 
    22f4:	01 00 00 00 	nop 
    22f8:	01 00 00 00 	nop 
    22fc:	01 00 00 00 	nop 
    2300:	01 00 00 00 	nop 
    2304:	01 00 00 00 	nop 
    2308:	01 00 00 00 	nop 
    230c:	01 00 00 00 	nop 
    2310:	01 00 00 00 	nop 
    2314:	01 00 00 00 	nop 
    2318:	01 00 00 00 	nop 
    231c:	01 00 00 00 	nop 
    2320:	01 00 00 00 	nop 
    2324:	01 00 00 00 	nop 
    2328:	01 00 00 00 	nop 
    232c:	01 00 00 00 	nop 
    2330:	01 00 00 00 	nop 
    2334:	01 00 00 00 	nop 
    2338:	01 00 00 00 	nop 
    233c:	01 00 00 00 	nop 
    2340:	01 00 00 00 	nop 
    2344:	01 00 00 00 	nop 
    2348:	01 00 00 00 	nop 
    234c:	01 00 00 00 	nop 
    2350:	01 00 00 00 	nop 
    2354:	01 00 00 00 	nop 
    2358:	01 00 00 00 	nop 
    235c:	01 00 00 00 	nop 
    2360:	01 00 00 00 	nop 
    2364:	01 00 00 00 	nop 
    2368:	01 00 00 00 	nop 
    236c:	01 00 00 00 	nop 
    2370:	01 00 00 00 	nop 
    2374:	01 00 00 00 	nop 
    2378:	01 00 00 00 	nop 
    237c:	01 00 00 00 	nop 
    2380:	01 00 00 00 	nop 
    2384:	01 00 00 00 	nop 
    2388:	01 00 00 00 	nop 
    238c:	01 00 00 00 	nop 
    2390:	01 00 00 00 	nop 
    2394:	01 00 00 00 	nop 
    2398:	01 00 00 00 	nop 
    239c:	01 00 00 00 	nop 
    23a0:	01 00 00 00 	nop 
    23a4:	01 00 00 00 	nop 
    23a8:	01 00 00 00 	nop 
    23ac:	01 00 00 00 	nop 
    23b0:	01 00 00 00 	nop 
    23b4:	01 00 00 00 	nop 
    23b8:	01 00 00 00 	nop 
    23bc:	01 00 00 00 	nop 
    23c0:	01 00 00 00 	nop 
    23c4:	01 00 00 00 	nop 
    23c8:	01 00 00 00 	nop 
    23cc:	01 00 00 00 	nop 
    23d0:	01 00 00 00 	nop 
    23d4:	01 00 00 00 	nop 
    23d8:	01 00 00 00 	nop 
    23dc:	01 00 00 00 	nop 
    23e0:	01 00 00 00 	nop 
    23e4:	01 00 00 00 	nop 
    23e8:	01 00 00 00 	nop 
    23ec:	01 00 00 00 	nop 
    23f0:	01 00 00 00 	nop 
    23f4:	01 00 00 00 	nop 
    23f8:	01 00 00 00 	nop 
    23fc:	01 00 00 00 	nop 
    2400:	01 00 00 00 	nop 
    2404:	01 00 00 00 	nop 
    2408:	01 00 00 00 	nop 
    240c:	01 00 00 00 	nop 
    2410:	01 00 00 00 	nop 
    2414:	01 00 00 00 	nop 
    2418:	01 00 00 00 	nop 
    241c:	01 00 00 00 	nop 
    2420:	01 00 00 00 	nop 
    2424:	01 00 00 00 	nop 
    2428:	01 00 00 00 	nop 
    242c:	01 00 00 00 	nop 
    2430:	01 00 00 00 	nop 
    2434:	01 00 00 00 	nop 
    2438:	01 00 00 00 	nop 
    243c:	01 00 00 00 	nop 
    2440:	01 00 00 00 	nop 
    2444:	01 00 00 00 	nop 
    2448:	01 00 00 00 	nop 
    244c:	01 00 00 00 	nop 
    2450:	01 00 00 00 	nop 
    2454:	01 00 00 00 	nop 
    2458:	01 00 00 00 	nop 
    245c:	01 00 00 00 	nop 
    2460:	01 00 00 00 	nop 
    2464:	01 00 00 00 	nop 
    2468:	01 00 00 00 	nop 
    246c:	01 00 00 00 	nop 
    2470:	01 00 00 00 	nop 
    2474:	01 00 00 00 	nop 
    2478:	01 00 00 00 	nop 
    247c:	01 00 00 00 	nop 
    2480:	01 00 00 00 	nop 
    2484:	01 00 00 00 	nop 
    2488:	01 00 00 00 	nop 
    248c:	01 00 00 00 	nop 
    2490:	01 00 00 00 	nop 
    2494:	01 00 00 00 	nop 
    2498:	01 00 00 00 	nop 
    249c:	01 00 00 00 	nop 
    24a0:	01 00 00 00 	nop 
    24a4:	01 00 00 00 	nop 
    24a8:	01 00 00 00 	nop 
    24ac:	01 00 00 00 	nop 
    24b0:	01 00 00 00 	nop 
    24b4:	01 00 00 00 	nop 
    24b8:	01 00 00 00 	nop 
    24bc:	01 00 00 00 	nop 
    24c0:	01 00 00 00 	nop 
    24c4:	01 00 00 00 	nop 
    24c8:	01 00 00 00 	nop 
    24cc:	01 00 00 00 	nop 
    24d0:	01 00 00 00 	nop 
    24d4:	01 00 00 00 	nop 
    24d8:	01 00 00 00 	nop 
    24dc:	01 00 00 00 	nop 
    24e0:	01 00 00 00 	nop 
    24e4:	01 00 00 00 	nop 
    24e8:	01 00 00 00 	nop 
    24ec:	01 00 00 00 	nop 
    24f0:	01 00 00 00 	nop 
    24f4:	01 00 00 00 	nop 
    24f8:	01 00 00 00 	nop 
    24fc:	01 00 00 00 	nop 
    2500:	01 00 00 00 	nop 
    2504:	01 00 00 00 	nop 
    2508:	01 00 00 00 	nop 
    250c:	01 00 00 00 	nop 
    2510:	01 00 00 00 	nop 
    2514:	01 00 00 00 	nop 
    2518:	01 00 00 00 	nop 
    251c:	01 00 00 00 	nop 
    2520:	01 00 00 00 	nop 
    2524:	01 00 00 00 	nop 
    2528:	01 00 00 00 	nop 
    252c:	01 00 00 00 	nop 
    2530:	01 00 00 00 	nop 
    2534:	01 00 00 00 	nop 
    2538:	01 00 00 00 	nop 
    253c:	01 00 00 00 	nop 
    2540:	01 00 00 00 	nop 
    2544:	01 00 00 00 	nop 
    2548:	01 00 00 00 	nop 
    254c:	01 00 00 00 	nop 
    2550:	01 00 00 00 	nop 
    2554:	01 00 00 00 	nop 
    2558:	01 00 00 00 	nop 
    255c:	01 00 00 00 	nop 
    2560:	01 00 00 00 	nop 
    2564:	01 00 00 00 	nop 
    2568:	01 00 00 00 	nop 
    256c:	01 00 00 00 	nop 
    2570:	01 00 00 00 	nop 
    2574:	01 00 00 00 	nop 
    2578:	01 00 00 00 	nop 
    257c:	01 00 00 00 	nop 
    2580:	01 00 00 00 	nop 
    2584:	01 00 00 00 	nop 
    2588:	01 00 00 00 	nop 
    258c:	01 00 00 00 	nop 
    2590:	01 00 00 00 	nop 
    2594:	01 00 00 00 	nop 
    2598:	01 00 00 00 	nop 
    259c:	01 00 00 00 	nop 
    25a0:	01 00 00 00 	nop 
    25a4:	01 00 00 00 	nop 
    25a8:	01 00 00 00 	nop 
    25ac:	01 00 00 00 	nop 
    25b0:	01 00 00 00 	nop 
    25b4:	01 00 00 00 	nop 
    25b8:	01 00 00 00 	nop 
    25bc:	01 00 00 00 	nop 
    25c0:	01 00 00 00 	nop 
    25c4:	01 00 00 00 	nop 
    25c8:	01 00 00 00 	nop 
    25cc:	01 00 00 00 	nop 
    25d0:	01 00 00 00 	nop 
    25d4:	01 00 00 00 	nop 
    25d8:	01 00 00 00 	nop 
    25dc:	01 00 00 00 	nop 
    25e0:	01 00 00 00 	nop 
    25e4:	01 00 00 00 	nop 
    25e8:	01 00 00 00 	nop 
    25ec:	01 00 00 00 	nop 
    25f0:	01 00 00 00 	nop 
    25f4:	01 00 00 00 	nop 
    25f8:	01 00 00 00 	nop 
    25fc:	01 00 00 00 	nop 
    2600:	01 00 00 00 	nop 
    2604:	01 00 00 00 	nop 
    2608:	01 00 00 00 	nop 
    260c:	01 00 00 00 	nop 
    2610:	01 00 00 00 	nop 
    2614:	01 00 00 00 	nop 
    2618:	01 00 00 00 	nop 
    261c:	01 00 00 00 	nop 
    2620:	01 00 00 00 	nop 
    2624:	01 00 00 00 	nop 
    2628:	01 00 00 00 	nop 
    262c:	01 00 00 00 	nop 
    2630:	01 00 00 00 	nop 
    2634:	01 00 00 00 	nop 
    2638:	01 00 00 00 	nop 
    263c:	01 00 00 00 	nop 
    2640:	01 00 00 00 	nop 
    2644:	01 00 00 00 	nop 
    2648:	01 00 00 00 	nop 
    264c:	01 00 00 00 	nop 
    2650:	01 00 00 00 	nop 
    2654:	01 00 00 00 	nop 
    2658:	01 00 00 00 	nop 
    265c:	01 00 00 00 	nop 
    2660:	01 00 00 00 	nop 
    2664:	01 00 00 00 	nop 
    2668:	01 00 00 00 	nop 
    266c:	01 00 00 00 	nop 
    2670:	01 00 00 00 	nop 
    2674:	01 00 00 00 	nop 
    2678:	01 00 00 00 	nop 
    267c:	01 00 00 00 	nop 
    2680:	01 00 00 00 	nop 
    2684:	01 00 00 00 	nop 
    2688:	01 00 00 00 	nop 
    268c:	01 00 00 00 	nop 
    2690:	01 00 00 00 	nop 
    2694:	01 00 00 00 	nop 
    2698:	01 00 00 00 	nop 
    269c:	01 00 00 00 	nop 
    26a0:	01 00 00 00 	nop 
    26a4:	01 00 00 00 	nop 
    26a8:	01 00 00 00 	nop 
    26ac:	01 00 00 00 	nop 
    26b0:	01 00 00 00 	nop 
    26b4:	01 00 00 00 	nop 
    26b8:	01 00 00 00 	nop 
    26bc:	01 00 00 00 	nop 
    26c0:	01 00 00 00 	nop 
    26c4:	01 00 00 00 	nop 
    26c8:	01 00 00 00 	nop 
    26cc:	01 00 00 00 	nop 
    26d0:	01 00 00 00 	nop 
    26d4:	01 00 00 00 	nop 
    26d8:	01 00 00 00 	nop 
    26dc:	01 00 00 00 	nop 
    26e0:	01 00 00 00 	nop 
    26e4:	01 00 00 00 	nop 
    26e8:	01 00 00 00 	nop 
    26ec:	01 00 00 00 	nop 
    26f0:	01 00 00 00 	nop 
    26f4:	01 00 00 00 	nop 
    26f8:	01 00 00 00 	nop 
    26fc:	01 00 00 00 	nop 
    2700:	01 00 00 00 	nop 
    2704:	01 00 00 00 	nop 
    2708:	01 00 00 00 	nop 
    270c:	01 00 00 00 	nop 
    2710:	01 00 00 00 	nop 
    2714:	01 00 00 00 	nop 
    2718:	01 00 00 00 	nop 
    271c:	01 00 00 00 	nop 
    2720:	01 00 00 00 	nop 
    2724:	01 00 00 00 	nop 
    2728:	01 00 00 00 	nop 
    272c:	01 00 00 00 	nop 
    2730:	01 00 00 00 	nop 
    2734:	01 00 00 00 	nop 
    2738:	01 00 00 00 	nop 
    273c:	01 00 00 00 	nop 
    2740:	01 00 00 00 	nop 
    2744:	01 00 00 00 	nop 
    2748:	01 00 00 00 	nop 
    274c:	01 00 00 00 	nop 
    2750:	01 00 00 00 	nop 
    2754:	01 00 00 00 	nop 
    2758:	01 00 00 00 	nop 
    275c:	01 00 00 00 	nop 
    2760:	01 00 00 00 	nop 
    2764:	01 00 00 00 	nop 
    2768:	01 00 00 00 	nop 
    276c:	01 00 00 00 	nop 
    2770:	01 00 00 00 	nop 
    2774:	01 00 00 00 	nop 
    2778:	01 00 00 00 	nop 
    277c:	01 00 00 00 	nop 
    2780:	01 00 00 00 	nop 
    2784:	01 00 00 00 	nop 
    2788:	01 00 00 00 	nop 
    278c:	01 00 00 00 	nop 
    2790:	01 00 00 00 	nop 
    2794:	01 00 00 00 	nop 
    2798:	01 00 00 00 	nop 
    279c:	01 00 00 00 	nop 
    27a0:	01 00 00 00 	nop 
    27a4:	01 00 00 00 	nop 
    27a8:	01 00 00 00 	nop 
    27ac:	01 00 00 00 	nop 
    27b0:	01 00 00 00 	nop 
    27b4:	01 00 00 00 	nop 
    27b8:	01 00 00 00 	nop 
    27bc:	01 00 00 00 	nop 
    27c0:	01 00 00 00 	nop 
    27c4:	01 00 00 00 	nop 
    27c8:	01 00 00 00 	nop 
    27cc:	01 00 00 00 	nop 
    27d0:	01 00 00 00 	nop 
    27d4:	01 00 00 00 	nop 
    27d8:	01 00 00 00 	nop 
    27dc:	01 00 00 00 	nop 
    27e0:	01 00 00 00 	nop 
    27e4:	01 00 00 00 	nop 
    27e8:	01 00 00 00 	nop 
    27ec:	01 00 00 00 	nop 
    27f0:	01 00 00 00 	nop 
    27f4:	01 00 00 00 	nop 
    27f8:	01 00 00 00 	nop 
    27fc:	01 00 00 00 	nop 
    2800:	01 00 00 00 	nop 
    2804:	01 00 00 00 	nop 
    2808:	01 00 00 00 	nop 
    280c:	01 00 00 00 	nop 
    2810:	01 00 00 00 	nop 
    2814:	01 00 00 00 	nop 
    2818:	01 00 00 00 	nop 
    281c:	01 00 00 00 	nop 
    2820:	01 00 00 00 	nop 
    2824:	01 00 00 00 	nop 
    2828:	01 00 00 00 	nop 
    282c:	01 00 00 00 	nop 
    2830:	01 00 00 00 	nop 
    2834:	01 00 00 00 	nop 
    2838:	01 00 00 00 	nop 
    283c:	01 00 00 00 	nop 
    2840:	01 00 00 00 	nop 
    2844:	01 00 00 00 	nop 
    2848:	01 00 00 00 	nop 
    284c:	01 00 00 00 	nop 
    2850:	01 00 00 00 	nop 
    2854:	01 00 00 00 	nop 
    2858:	01 00 00 00 	nop 
    285c:	01 00 00 00 	nop 
    2860:	01 00 00 00 	nop 
    2864:	01 00 00 00 	nop 
    2868:	01 00 00 00 	nop 
    286c:	01 00 00 00 	nop 
    2870:	01 00 00 00 	nop 
    2874:	01 00 00 00 	nop 
    2878:	01 00 00 00 	nop 
    287c:	01 00 00 00 	nop 
    2880:	01 00 00 00 	nop 
    2884:	01 00 00 00 	nop 
    2888:	01 00 00 00 	nop 
    288c:	01 00 00 00 	nop 
    2890:	01 00 00 00 	nop 
    2894:	01 00 00 00 	nop 
    2898:	01 00 00 00 	nop 
    289c:	01 00 00 00 	nop 
    28a0:	01 00 00 00 	nop 
    28a4:	01 00 00 00 	nop 
    28a8:	01 00 00 00 	nop 
    28ac:	01 00 00 00 	nop 
    28b0:	01 00 00 00 	nop 
    28b4:	01 00 00 00 	nop 
    28b8:	01 00 00 00 	nop 
    28bc:	01 00 00 00 	nop 
    28c0:	01 00 00 00 	nop 
    28c4:	01 00 00 00 	nop 
    28c8:	01 00 00 00 	nop 
    28cc:	01 00 00 00 	nop 
    28d0:	01 00 00 00 	nop 
    28d4:	01 00 00 00 	nop 
    28d8:	01 00 00 00 	nop 
    28dc:	01 00 00 00 	nop 
    28e0:	01 00 00 00 	nop 
    28e4:	01 00 00 00 	nop 
    28e8:	01 00 00 00 	nop 
    28ec:	01 00 00 00 	nop 
    28f0:	01 00 00 00 	nop 
    28f4:	01 00 00 00 	nop 
    28f8:	01 00 00 00 	nop 
    28fc:	01 00 00 00 	nop 
    2900:	01 00 00 00 	nop 
    2904:	01 00 00 00 	nop 
    2908:	01 00 00 00 	nop 
    290c:	01 00 00 00 	nop 
    2910:	01 00 00 00 	nop 
    2914:	01 00 00 00 	nop 
    2918:	01 00 00 00 	nop 
    291c:	01 00 00 00 	nop 
    2920:	01 00 00 00 	nop 
    2924:	01 00 00 00 	nop 
    2928:	01 00 00 00 	nop 
    292c:	01 00 00 00 	nop 
    2930:	01 00 00 00 	nop 
    2934:	01 00 00 00 	nop 
    2938:	01 00 00 00 	nop 
    293c:	01 00 00 00 	nop 
    2940:	01 00 00 00 	nop 
    2944:	01 00 00 00 	nop 
    2948:	01 00 00 00 	nop 
    294c:	01 00 00 00 	nop 
    2950:	01 00 00 00 	nop 
    2954:	01 00 00 00 	nop 
    2958:	01 00 00 00 	nop 
    295c:	01 00 00 00 	nop 
    2960:	01 00 00 00 	nop 
    2964:	01 00 00 00 	nop 
    2968:	01 00 00 00 	nop 
    296c:	01 00 00 00 	nop 
    2970:	01 00 00 00 	nop 
    2974:	01 00 00 00 	nop 
    2978:	01 00 00 00 	nop 
    297c:	01 00 00 00 	nop 
    2980:	01 00 00 00 	nop 
    2984:	01 00 00 00 	nop 
    2988:	01 00 00 00 	nop 
    298c:	01 00 00 00 	nop 
    2990:	01 00 00 00 	nop 
    2994:	01 00 00 00 	nop 
    2998:	01 00 00 00 	nop 
    299c:	01 00 00 00 	nop 
    29a0:	01 00 00 00 	nop 
    29a4:	01 00 00 00 	nop 
    29a8:	01 00 00 00 	nop 
    29ac:	01 00 00 00 	nop 
    29b0:	01 00 00 00 	nop 
    29b4:	01 00 00 00 	nop 
    29b8:	01 00 00 00 	nop 
    29bc:	01 00 00 00 	nop 
    29c0:	01 00 00 00 	nop 
    29c4:	01 00 00 00 	nop 
    29c8:	01 00 00 00 	nop 
    29cc:	01 00 00 00 	nop 
    29d0:	01 00 00 00 	nop 
    29d4:	01 00 00 00 	nop 
    29d8:	01 00 00 00 	nop 
    29dc:	01 00 00 00 	nop 
    29e0:	01 00 00 00 	nop 
    29e4:	01 00 00 00 	nop 
    29e8:	01 00 00 00 	nop 
    29ec:	01 00 00 00 	nop 
    29f0:	01 00 00 00 	nop 
    29f4:	01 00 00 00 	nop 
    29f8:	01 00 00 00 	nop 
    29fc:	01 00 00 00 	nop 
    2a00:	01 00 00 00 	nop 
    2a04:	01 00 00 00 	nop 
    2a08:	01 00 00 00 	nop 
    2a0c:	01 00 00 00 	nop 
    2a10:	01 00 00 00 	nop 
    2a14:	01 00 00 00 	nop 
    2a18:	01 00 00 00 	nop 
    2a1c:	01 00 00 00 	nop 
    2a20:	01 00 00 00 	nop 
    2a24:	01 00 00 00 	nop 
    2a28:	01 00 00 00 	nop 
    2a2c:	01 00 00 00 	nop 
    2a30:	01 00 00 00 	nop 
    2a34:	01 00 00 00 	nop 
    2a38:	01 00 00 00 	nop 
    2a3c:	01 00 00 00 	nop 
    2a40:	01 00 00 00 	nop 
    2a44:	01 00 00 00 	nop 
    2a48:	01 00 00 00 	nop 
    2a4c:	01 00 00 00 	nop 
    2a50:	01 00 00 00 	nop 
    2a54:	01 00 00 00 	nop 
    2a58:	01 00 00 00 	nop 
    2a5c:	01 00 00 00 	nop 
    2a60:	01 00 00 00 	nop 
    2a64:	01 00 00 00 	nop 
    2a68:	01 00 00 00 	nop 
    2a6c:	01 00 00 00 	nop 
    2a70:	01 00 00 00 	nop 
    2a74:	01 00 00 00 	nop 
    2a78:	01 00 00 00 	nop 
    2a7c:	01 00 00 00 	nop 
    2a80:	01 00 00 00 	nop 
    2a84:	01 00 00 00 	nop 
    2a88:	01 00 00 00 	nop 
    2a8c:	01 00 00 00 	nop 
    2a90:	01 00 00 00 	nop 
    2a94:	01 00 00 00 	nop 
    2a98:	01 00 00 00 	nop 
    2a9c:	01 00 00 00 	nop 
    2aa0:	01 00 00 00 	nop 
    2aa4:	01 00 00 00 	nop 
    2aa8:	01 00 00 00 	nop 
    2aac:	01 00 00 00 	nop 
    2ab0:	01 00 00 00 	nop 
    2ab4:	01 00 00 00 	nop 
    2ab8:	01 00 00 00 	nop 
    2abc:	01 00 00 00 	nop 
    2ac0:	01 00 00 00 	nop 
    2ac4:	01 00 00 00 	nop 
    2ac8:	01 00 00 00 	nop 
    2acc:	01 00 00 00 	nop 
    2ad0:	01 00 00 00 	nop 
    2ad4:	01 00 00 00 	nop 
    2ad8:	01 00 00 00 	nop 
    2adc:	01 00 00 00 	nop 
    2ae0:	01 00 00 00 	nop 
    2ae4:	01 00 00 00 	nop 
    2ae8:	01 00 00 00 	nop 
    2aec:	01 00 00 00 	nop 
    2af0:	01 00 00 00 	nop 
    2af4:	01 00 00 00 	nop 
    2af8:	01 00 00 00 	nop 
    2afc:	01 00 00 00 	nop 
    2b00:	01 00 00 00 	nop 
    2b04:	01 00 00 00 	nop 
    2b08:	01 00 00 00 	nop 
    2b0c:	01 00 00 00 	nop 
    2b10:	01 00 00 00 	nop 
    2b14:	01 00 00 00 	nop 
    2b18:	01 00 00 00 	nop 
    2b1c:	01 00 00 00 	nop 
    2b20:	01 00 00 00 	nop 
    2b24:	01 00 00 00 	nop 
    2b28:	01 00 00 00 	nop 
    2b2c:	01 00 00 00 	nop 
    2b30:	01 00 00 00 	nop 
    2b34:	01 00 00 00 	nop 
    2b38:	01 00 00 00 	nop 
    2b3c:	01 00 00 00 	nop 
    2b40:	01 00 00 00 	nop 
    2b44:	01 00 00 00 	nop 
    2b48:	01 00 00 00 	nop 
    2b4c:	01 00 00 00 	nop 
    2b50:	01 00 00 00 	nop 
    2b54:	01 00 00 00 	nop 
    2b58:	01 00 00 00 	nop 
    2b5c:	01 00 00 00 	nop 
    2b60:	01 00 00 00 	nop 
    2b64:	01 00 00 00 	nop 
    2b68:	01 00 00 00 	nop 
    2b6c:	01 00 00 00 	nop 
    2b70:	01 00 00 00 	nop 
    2b74:	01 00 00 00 	nop 
    2b78:	01 00 00 00 	nop 
    2b7c:	01 00 00 00 	nop 
    2b80:	01 00 00 00 	nop 
    2b84:	01 00 00 00 	nop 
    2b88:	01 00 00 00 	nop 
    2b8c:	01 00 00 00 	nop 
    2b90:	01 00 00 00 	nop 
    2b94:	01 00 00 00 	nop 
    2b98:	01 00 00 00 	nop 
    2b9c:	01 00 00 00 	nop 
    2ba0:	01 00 00 00 	nop 
    2ba4:	01 00 00 00 	nop 
    2ba8:	01 00 00 00 	nop 
    2bac:	01 00 00 00 	nop 
    2bb0:	01 00 00 00 	nop 
    2bb4:	01 00 00 00 	nop 
    2bb8:	01 00 00 00 	nop 
    2bbc:	01 00 00 00 	nop 
    2bc0:	01 00 00 00 	nop 
    2bc4:	01 00 00 00 	nop 
    2bc8:	01 00 00 00 	nop 
    2bcc:	01 00 00 00 	nop 
    2bd0:	01 00 00 00 	nop 
    2bd4:	01 00 00 00 	nop 
    2bd8:	01 00 00 00 	nop 
    2bdc:	01 00 00 00 	nop 
    2be0:	01 00 00 00 	nop 
    2be4:	01 00 00 00 	nop 
    2be8:	01 00 00 00 	nop 
    2bec:	01 00 00 00 	nop 
    2bf0:	01 00 00 00 	nop 
    2bf4:	01 00 00 00 	nop 
    2bf8:	01 00 00 00 	nop 
    2bfc:	01 00 00 00 	nop 
    2c00:	01 00 00 00 	nop 
    2c04:	01 00 00 00 	nop 
    2c08:	01 00 00 00 	nop 
    2c0c:	01 00 00 00 	nop 
    2c10:	01 00 00 00 	nop 
    2c14:	01 00 00 00 	nop 
    2c18:	01 00 00 00 	nop 
    2c1c:	01 00 00 00 	nop 
    2c20:	01 00 00 00 	nop 
    2c24:	01 00 00 00 	nop 
    2c28:	01 00 00 00 	nop 
    2c2c:	01 00 00 00 	nop 
    2c30:	01 00 00 00 	nop 
    2c34:	01 00 00 00 	nop 
    2c38:	01 00 00 00 	nop 
    2c3c:	01 00 00 00 	nop 
    2c40:	01 00 00 00 	nop 
    2c44:	01 00 00 00 	nop 
    2c48:	01 00 00 00 	nop 
    2c4c:	01 00 00 00 	nop 
    2c50:	01 00 00 00 	nop 
    2c54:	01 00 00 00 	nop 
    2c58:	01 00 00 00 	nop 
    2c5c:	01 00 00 00 	nop 
    2c60:	01 00 00 00 	nop 
    2c64:	01 00 00 00 	nop 
    2c68:	01 00 00 00 	nop 
    2c6c:	01 00 00 00 	nop 
    2c70:	01 00 00 00 	nop 
    2c74:	01 00 00 00 	nop 
    2c78:	01 00 00 00 	nop 
    2c7c:	01 00 00 00 	nop 
    2c80:	01 00 00 00 	nop 
    2c84:	01 00 00 00 	nop 
    2c88:	01 00 00 00 	nop 
    2c8c:	01 00 00 00 	nop 
    2c90:	01 00 00 00 	nop 
    2c94:	01 00 00 00 	nop 
    2c98:	01 00 00 00 	nop 
    2c9c:	01 00 00 00 	nop 
    2ca0:	01 00 00 00 	nop 
    2ca4:	01 00 00 00 	nop 
    2ca8:	01 00 00 00 	nop 
    2cac:	01 00 00 00 	nop 
    2cb0:	01 00 00 00 	nop 
    2cb4:	01 00 00 00 	nop 
    2cb8:	01 00 00 00 	nop 
    2cbc:	01 00 00 00 	nop 
    2cc0:	01 00 00 00 	nop 
    2cc4:	01 00 00 00 	nop 
    2cc8:	01 00 00 00 	nop 
    2ccc:	01 00 00 00 	nop 
    2cd0:	01 00 00 00 	nop 
    2cd4:	01 00 00 00 	nop 
    2cd8:	01 00 00 00 	nop 
    2cdc:	01 00 00 00 	nop 
    2ce0:	01 00 00 00 	nop 
    2ce4:	01 00 00 00 	nop 
    2ce8:	01 00 00 00 	nop 
    2cec:	01 00 00 00 	nop 
    2cf0:	01 00 00 00 	nop 
    2cf4:	01 00 00 00 	nop 
    2cf8:	01 00 00 00 	nop 
    2cfc:	01 00 00 00 	nop 
    2d00:	01 00 00 00 	nop 
    2d04:	01 00 00 00 	nop 
    2d08:	01 00 00 00 	nop 
    2d0c:	01 00 00 00 	nop 
    2d10:	01 00 00 00 	nop 
    2d14:	01 00 00 00 	nop 
    2d18:	01 00 00 00 	nop 
    2d1c:	01 00 00 00 	nop 
    2d20:	01 00 00 00 	nop 
    2d24:	01 00 00 00 	nop 
    2d28:	01 00 00 00 	nop 
    2d2c:	01 00 00 00 	nop 
    2d30:	01 00 00 00 	nop 
    2d34:	01 00 00 00 	nop 
    2d38:	01 00 00 00 	nop 
    2d3c:	01 00 00 00 	nop 
    2d40:	01 00 00 00 	nop 
    2d44:	01 00 00 00 	nop 
    2d48:	01 00 00 00 	nop 
    2d4c:	01 00 00 00 	nop 
    2d50:	01 00 00 00 	nop 
    2d54:	01 00 00 00 	nop 
    2d58:	01 00 00 00 	nop 
    2d5c:	01 00 00 00 	nop 
    2d60:	01 00 00 00 	nop 
    2d64:	01 00 00 00 	nop 
    2d68:	01 00 00 00 	nop 
    2d6c:	01 00 00 00 	nop 
    2d70:	01 00 00 00 	nop 
    2d74:	01 00 00 00 	nop 
    2d78:	01 00 00 00 	nop 
    2d7c:	01 00 00 00 	nop 
    2d80:	01 00 00 00 	nop 
    2d84:	01 00 00 00 	nop 
    2d88:	01 00 00 00 	nop 
    2d8c:	01 00 00 00 	nop 
    2d90:	01 00 00 00 	nop 
    2d94:	01 00 00 00 	nop 
    2d98:	01 00 00 00 	nop 
    2d9c:	01 00 00 00 	nop 
    2da0:	01 00 00 00 	nop 
    2da4:	01 00 00 00 	nop 
    2da8:	01 00 00 00 	nop 
    2dac:	01 00 00 00 	nop 
    2db0:	01 00 00 00 	nop 
    2db4:	01 00 00 00 	nop 
    2db8:	01 00 00 00 	nop 
    2dbc:	01 00 00 00 	nop 
    2dc0:	01 00 00 00 	nop 
    2dc4:	01 00 00 00 	nop 
    2dc8:	01 00 00 00 	nop 
    2dcc:	01 00 00 00 	nop 
    2dd0:	01 00 00 00 	nop 
    2dd4:	01 00 00 00 	nop 
    2dd8:	01 00 00 00 	nop 
    2ddc:	01 00 00 00 	nop 
    2de0:	01 00 00 00 	nop 
    2de4:	01 00 00 00 	nop 
    2de8:	01 00 00 00 	nop 
    2dec:	01 00 00 00 	nop 
    2df0:	01 00 00 00 	nop 
    2df4:	01 00 00 00 	nop 
    2df8:	01 00 00 00 	nop 
    2dfc:	01 00 00 00 	nop 
    2e00:	01 00 00 00 	nop 
    2e04:	01 00 00 00 	nop 
    2e08:	01 00 00 00 	nop 
    2e0c:	01 00 00 00 	nop 
    2e10:	01 00 00 00 	nop 
    2e14:	01 00 00 00 	nop 
    2e18:	01 00 00 00 	nop 
    2e1c:	01 00 00 00 	nop 
    2e20:	01 00 00 00 	nop 
    2e24:	01 00 00 00 	nop 
    2e28:	01 00 00 00 	nop 
    2e2c:	01 00 00 00 	nop 
    2e30:	01 00 00 00 	nop 
    2e34:	01 00 00 00 	nop 
    2e38:	01 00 00 00 	nop 
    2e3c:	01 00 00 00 	nop 
    2e40:	01 00 00 00 	nop 
    2e44:	01 00 00 00 	nop 
    2e48:	01 00 00 00 	nop 
    2e4c:	01 00 00 00 	nop 
    2e50:	01 00 00 00 	nop 
    2e54:	01 00 00 00 	nop 
    2e58:	01 00 00 00 	nop 
    2e5c:	01 00 00 00 	nop 
    2e60:	01 00 00 00 	nop 
    2e64:	01 00 00 00 	nop 
    2e68:	01 00 00 00 	nop 
    2e6c:	01 00 00 00 	nop 
    2e70:	01 00 00 00 	nop 
    2e74:	01 00 00 00 	nop 
    2e78:	01 00 00 00 	nop 
    2e7c:	01 00 00 00 	nop 
    2e80:	01 00 00 00 	nop 
    2e84:	01 00 00 00 	nop 
    2e88:	01 00 00 00 	nop 
    2e8c:	01 00 00 00 	nop 
    2e90:	01 00 00 00 	nop 
    2e94:	01 00 00 00 	nop 
    2e98:	01 00 00 00 	nop 
    2e9c:	01 00 00 00 	nop 
    2ea0:	01 00 00 00 	nop 
    2ea4:	01 00 00 00 	nop 
    2ea8:	01 00 00 00 	nop 
    2eac:	01 00 00 00 	nop 
    2eb0:	01 00 00 00 	nop 
    2eb4:	01 00 00 00 	nop 
    2eb8:	01 00 00 00 	nop 
    2ebc:	01 00 00 00 	nop 
    2ec0:	01 00 00 00 	nop 
    2ec4:	01 00 00 00 	nop 
    2ec8:	01 00 00 00 	nop 
    2ecc:	01 00 00 00 	nop 
    2ed0:	01 00 00 00 	nop 
    2ed4:	01 00 00 00 	nop 
    2ed8:	01 00 00 00 	nop 
    2edc:	01 00 00 00 	nop 
    2ee0:	01 00 00 00 	nop 
    2ee4:	01 00 00 00 	nop 
    2ee8:	01 00 00 00 	nop 
    2eec:	01 00 00 00 	nop 
    2ef0:	01 00 00 00 	nop 
    2ef4:	01 00 00 00 	nop 
    2ef8:	01 00 00 00 	nop 
    2efc:	01 00 00 00 	nop 
    2f00:	01 00 00 00 	nop 
    2f04:	01 00 00 00 	nop 
    2f08:	01 00 00 00 	nop 
    2f0c:	01 00 00 00 	nop 
    2f10:	01 00 00 00 	nop 
    2f14:	01 00 00 00 	nop 
    2f18:	01 00 00 00 	nop 
    2f1c:	01 00 00 00 	nop 
    2f20:	01 00 00 00 	nop 
    2f24:	01 00 00 00 	nop 
    2f28:	01 00 00 00 	nop 
    2f2c:	01 00 00 00 	nop 
    2f30:	01 00 00 00 	nop 
    2f34:	01 00 00 00 	nop 
    2f38:	01 00 00 00 	nop 
    2f3c:	01 00 00 00 	nop 
    2f40:	01 00 00 00 	nop 
    2f44:	01 00 00 00 	nop 
    2f48:	01 00 00 00 	nop 
    2f4c:	01 00 00 00 	nop 
    2f50:	01 00 00 00 	nop 
    2f54:	01 00 00 00 	nop 
    2f58:	01 00 00 00 	nop 
    2f5c:	01 00 00 00 	nop 
    2f60:	01 00 00 00 	nop 
    2f64:	01 00 00 00 	nop 
    2f68:	01 00 00 00 	nop 
    2f6c:	01 00 00 00 	nop 
    2f70:	01 00 00 00 	nop 
    2f74:	01 00 00 00 	nop 
    2f78:	01 00 00 00 	nop 
    2f7c:	01 00 00 00 	nop 
    2f80:	01 00 00 00 	nop 
    2f84:	01 00 00 00 	nop 
    2f88:	01 00 00 00 	nop 
    2f8c:	01 00 00 00 	nop 
    2f90:	01 00 00 00 	nop 
    2f94:	01 00 00 00 	nop 
    2f98:	01 00 00 00 	nop 
    2f9c:	01 00 00 00 	nop 
    2fa0:	01 00 00 00 	nop 
    2fa4:	01 00 00 00 	nop 
    2fa8:	01 00 00 00 	nop 
    2fac:	01 00 00 00 	nop 
    2fb0:	01 00 00 00 	nop 
    2fb4:	01 00 00 00 	nop 
    2fb8:	01 00 00 00 	nop 
    2fbc:	01 00 00 00 	nop 
    2fc0:	01 00 00 00 	nop 
    2fc4:	01 00 00 00 	nop 
    2fc8:	01 00 00 00 	nop 
    2fcc:	01 00 00 00 	nop 
    2fd0:	01 00 00 00 	nop 
    2fd4:	01 00 00 00 	nop 
    2fd8:	01 00 00 00 	nop 
    2fdc:	01 00 00 00 	nop 
    2fe0:	01 00 00 00 	nop 
    2fe4:	01 00 00 00 	nop 
    2fe8:	01 00 00 00 	nop 
    2fec:	01 00 00 00 	nop 
    2ff0:	01 00 00 00 	nop 
    2ff4:	01 00 00 00 	nop 
    2ff8:	01 00 00 00 	nop 
    2ffc:	01 00 00 00 	nop 

00003000 <trap_table_base>:
    3000:	91 d0 20 00 	ta  0
    3004:	01 00 00 00 	nop 
    3008:	01 00 00 00 	nop 
    300c:	01 00 00 00 	nop 

00003010 <HW_trap_0x01>:
    3010:	91 d0 20 00 	ta  0
    3014:	01 00 00 00 	nop 
    3018:	01 00 00 00 	nop 
    301c:	01 00 00 00 	nop 

00003020 <HW_trap_0x02>:
    3020:	91 d0 20 00 	ta  0
    3024:	01 00 00 00 	nop 
    3028:	01 00 00 00 	nop 
    302c:	01 00 00 00 	nop 

00003030 <HW_trap_0x03>:
    3030:	91 d0 20 00 	ta  0
    3034:	01 00 00 00 	nop 
    3038:	01 00 00 00 	nop 
    303c:	01 00 00 00 	nop 

00003040 <HW_trap_0x04>:
    3040:	91 d0 20 00 	ta  0
    3044:	01 00 00 00 	nop 
    3048:	01 00 00 00 	nop 
    304c:	01 00 00 00 	nop 

00003050 <HW_trap_0x05>:
    3050:	10 bf fb ec 	b  2000 <window_overflow_trap_handler>
    3054:	01 00 00 00 	nop 
    3058:	01 00 00 00 	nop 
    305c:	01 00 00 00 	nop 

00003060 <HW_trap_0x06>:
    3060:	10 bf fc 01 	b  2064 <window_underflow_trap_handler>
    3064:	01 00 00 00 	nop 
    3068:	01 00 00 00 	nop 
    306c:	01 00 00 00 	nop 

00003070 <HW_trap_0x07>:
    3070:	91 d0 20 00 	ta  0
    3074:	01 00 00 00 	nop 
    3078:	01 00 00 00 	nop 
    307c:	01 00 00 00 	nop 

00003080 <HW_trap_0x08>:
    3080:	91 d0 20 00 	ta  0
    3084:	01 00 00 00 	nop 
    3088:	01 00 00 00 	nop 
    308c:	01 00 00 00 	nop 

00003090 <HW_trap_0x09>:
    3090:	91 d0 20 00 	ta  0
    3094:	01 00 00 00 	nop 
    3098:	01 00 00 00 	nop 
    309c:	01 00 00 00 	nop 

000030a0 <HW_trap_0x0a>:
    30a0:	91 d0 20 00 	ta  0
    30a4:	01 00 00 00 	nop 
    30a8:	01 00 00 00 	nop 
    30ac:	01 00 00 00 	nop 

000030b0 <HW_trap_0x0b>:
    30b0:	91 d0 20 00 	ta  0
    30b4:	01 00 00 00 	nop 
    30b8:	01 00 00 00 	nop 
    30bc:	01 00 00 00 	nop 

000030c0 <HW_trap_0x0c>:
    30c0:	91 d0 20 00 	ta  0
    30c4:	01 00 00 00 	nop 
    30c8:	01 00 00 00 	nop 
    30cc:	01 00 00 00 	nop 

000030d0 <HW_trap_0x0d>:
    30d0:	91 d0 20 00 	ta  0
    30d4:	01 00 00 00 	nop 
    30d8:	01 00 00 00 	nop 
    30dc:	01 00 00 00 	nop 

000030e0 <HW_trap_0x0e>:
    30e0:	91 d0 20 00 	ta  0
    30e4:	01 00 00 00 	nop 
    30e8:	01 00 00 00 	nop 
    30ec:	01 00 00 00 	nop 

000030f0 <HW_trap_0x0f>:
    30f0:	91 d0 20 00 	ta  0
    30f4:	01 00 00 00 	nop 
    30f8:	01 00 00 00 	nop 
    30fc:	01 00 00 00 	nop 

00003100 <HW_trap_0x10>:
    3100:	91 d0 20 00 	ta  0
    3104:	01 00 00 00 	nop 
    3108:	01 00 00 00 	nop 
    310c:	01 00 00 00 	nop 

00003110 <HW_trap_0x11>:
    3110:	91 d0 20 00 	ta  0
    3114:	01 00 00 00 	nop 
    3118:	01 00 00 00 	nop 
    311c:	01 00 00 00 	nop 

00003120 <HW_trap_0x12>:
    3120:	91 d0 20 00 	ta  0
    3124:	01 00 00 00 	nop 
    3128:	01 00 00 00 	nop 
    312c:	01 00 00 00 	nop 

00003130 <HW_trap_0x13>:
    3130:	91 d0 20 00 	ta  0
    3134:	01 00 00 00 	nop 
    3138:	01 00 00 00 	nop 
    313c:	01 00 00 00 	nop 

00003140 <HW_trap_0x14>:
    3140:	91 d0 20 00 	ta  0
    3144:	01 00 00 00 	nop 
    3148:	01 00 00 00 	nop 
    314c:	01 00 00 00 	nop 

00003150 <HW_trap_0x15>:
    3150:	91 d0 20 00 	ta  0
    3154:	01 00 00 00 	nop 
    3158:	01 00 00 00 	nop 
    315c:	01 00 00 00 	nop 

00003160 <HW_trap_0x16>:
    3160:	91 d0 20 00 	ta  0
    3164:	01 00 00 00 	nop 
    3168:	01 00 00 00 	nop 
    316c:	01 00 00 00 	nop 

00003170 <HW_trap_0x17>:
    3170:	91 d0 20 00 	ta  0
    3174:	01 00 00 00 	nop 
    3178:	01 00 00 00 	nop 
    317c:	01 00 00 00 	nop 

00003180 <HW_trap_0x18>:
    3180:	91 d0 20 00 	ta  0
    3184:	01 00 00 00 	nop 
    3188:	01 00 00 00 	nop 
    318c:	01 00 00 00 	nop 

00003190 <HW_trap_0x19>:
    3190:	91 d0 20 00 	ta  0
    3194:	01 00 00 00 	nop 
    3198:	01 00 00 00 	nop 
    319c:	01 00 00 00 	nop 

000031a0 <HW_trap_0x1a>:
    31a0:	91 d0 20 00 	ta  0
    31a4:	01 00 00 00 	nop 
    31a8:	01 00 00 00 	nop 
    31ac:	01 00 00 00 	nop 

000031b0 <HW_trap_0x1b>:
    31b0:	91 d0 20 00 	ta  0
    31b4:	01 00 00 00 	nop 
    31b8:	01 00 00 00 	nop 
    31bc:	01 00 00 00 	nop 

000031c0 <HW_trap_0x1c>:
    31c0:	91 d0 20 00 	ta  0
    31c4:	01 00 00 00 	nop 
    31c8:	01 00 00 00 	nop 
    31cc:	01 00 00 00 	nop 

000031d0 <HW_trap_0x1d>:
    31d0:	91 d0 20 00 	ta  0
    31d4:	01 00 00 00 	nop 
    31d8:	01 00 00 00 	nop 
    31dc:	01 00 00 00 	nop 

000031e0 <HW_trap_0x1e>:
    31e0:	91 d0 20 00 	ta  0
    31e4:	01 00 00 00 	nop 
    31e8:	01 00 00 00 	nop 
    31ec:	01 00 00 00 	nop 

000031f0 <HW_trap_0x1f>:
    31f0:	91 d0 20 00 	ta  0
    31f4:	01 00 00 00 	nop 
    31f8:	01 00 00 00 	nop 
    31fc:	01 00 00 00 	nop 

00003200 <HW_trap_0x20>:
    3200:	91 d0 20 00 	ta  0
    3204:	01 00 00 00 	nop 
    3208:	01 00 00 00 	nop 
    320c:	01 00 00 00 	nop 

00003210 <HW_trap_0x21>:
    3210:	91 d0 20 00 	ta  0
    3214:	01 00 00 00 	nop 
    3218:	01 00 00 00 	nop 
    321c:	01 00 00 00 	nop 

00003220 <HW_trap_0x22>:
    3220:	91 d0 20 00 	ta  0
    3224:	01 00 00 00 	nop 
    3228:	01 00 00 00 	nop 
    322c:	01 00 00 00 	nop 

00003230 <HW_trap_0x23>:
    3230:	91 d0 20 00 	ta  0
    3234:	01 00 00 00 	nop 
    3238:	01 00 00 00 	nop 
    323c:	01 00 00 00 	nop 

00003240 <HW_trap_0x24>:
    3240:	91 d0 20 00 	ta  0
    3244:	01 00 00 00 	nop 
    3248:	01 00 00 00 	nop 
    324c:	01 00 00 00 	nop 

00003250 <HW_trap_0x25>:
    3250:	91 d0 20 00 	ta  0
    3254:	01 00 00 00 	nop 
    3258:	01 00 00 00 	nop 
    325c:	01 00 00 00 	nop 

00003260 <HW_trap_0x26>:
    3260:	91 d0 20 00 	ta  0
    3264:	01 00 00 00 	nop 
    3268:	01 00 00 00 	nop 
    326c:	01 00 00 00 	nop 

00003270 <HW_trap_0x27>:
    3270:	91 d0 20 00 	ta  0
    3274:	01 00 00 00 	nop 
    3278:	01 00 00 00 	nop 
    327c:	01 00 00 00 	nop 

00003280 <HW_trap_0x28>:
    3280:	91 d0 20 00 	ta  0
    3284:	01 00 00 00 	nop 
    3288:	01 00 00 00 	nop 
    328c:	01 00 00 00 	nop 

00003290 <HW_trap_0x29>:
    3290:	91 d0 20 00 	ta  0
    3294:	01 00 00 00 	nop 
    3298:	01 00 00 00 	nop 
    329c:	01 00 00 00 	nop 

000032a0 <HW_trap_0x2a>:
    32a0:	91 d0 20 00 	ta  0
    32a4:	01 00 00 00 	nop 
    32a8:	01 00 00 00 	nop 
    32ac:	01 00 00 00 	nop 

000032b0 <HW_trap_0x2b>:
    32b0:	91 d0 20 00 	ta  0
    32b4:	01 00 00 00 	nop 
    32b8:	01 00 00 00 	nop 
    32bc:	01 00 00 00 	nop 

000032c0 <HW_trap_0x2c>:
    32c0:	91 d0 20 00 	ta  0
    32c4:	01 00 00 00 	nop 
    32c8:	01 00 00 00 	nop 
    32cc:	01 00 00 00 	nop 

000032d0 <HW_trap_0x2d>:
    32d0:	91 d0 20 00 	ta  0
    32d4:	01 00 00 00 	nop 
    32d8:	01 00 00 00 	nop 
    32dc:	01 00 00 00 	nop 

000032e0 <HW_trap_0x2e>:
    32e0:	91 d0 20 00 	ta  0
    32e4:	01 00 00 00 	nop 
    32e8:	01 00 00 00 	nop 
    32ec:	01 00 00 00 	nop 

000032f0 <HW_trap_0x2f>:
    32f0:	91 d0 20 00 	ta  0
    32f4:	01 00 00 00 	nop 
    32f8:	01 00 00 00 	nop 
    32fc:	01 00 00 00 	nop 

00003300 <HW_trap_0x30>:
    3300:	91 d0 20 00 	ta  0
    3304:	01 00 00 00 	nop 
    3308:	01 00 00 00 	nop 
    330c:	01 00 00 00 	nop 

00003310 <HW_trap_0x31>:
    3310:	91 d0 20 00 	ta  0
    3314:	01 00 00 00 	nop 
    3318:	01 00 00 00 	nop 
    331c:	01 00 00 00 	nop 

00003320 <HW_trap_0x32>:
    3320:	91 d0 20 00 	ta  0
    3324:	01 00 00 00 	nop 
    3328:	01 00 00 00 	nop 
    332c:	01 00 00 00 	nop 

00003330 <HW_trap_0x33>:
    3330:	91 d0 20 00 	ta  0
    3334:	01 00 00 00 	nop 
    3338:	01 00 00 00 	nop 
    333c:	01 00 00 00 	nop 

00003340 <HW_trap_0x34>:
    3340:	91 d0 20 00 	ta  0
    3344:	01 00 00 00 	nop 
    3348:	01 00 00 00 	nop 
    334c:	01 00 00 00 	nop 

00003350 <HW_trap_0x35>:
    3350:	91 d0 20 00 	ta  0
    3354:	01 00 00 00 	nop 
    3358:	01 00 00 00 	nop 
    335c:	01 00 00 00 	nop 

00003360 <HW_trap_0x36>:
    3360:	91 d0 20 00 	ta  0
    3364:	01 00 00 00 	nop 
    3368:	01 00 00 00 	nop 
    336c:	01 00 00 00 	nop 

00003370 <HW_trap_0x37>:
    3370:	91 d0 20 00 	ta  0
    3374:	01 00 00 00 	nop 
    3378:	01 00 00 00 	nop 
    337c:	01 00 00 00 	nop 

00003380 <HW_trap_0x38>:
    3380:	91 d0 20 00 	ta  0
    3384:	01 00 00 00 	nop 
    3388:	01 00 00 00 	nop 
    338c:	01 00 00 00 	nop 

00003390 <HW_trap_0x39>:
    3390:	91 d0 20 00 	ta  0
    3394:	01 00 00 00 	nop 
    3398:	01 00 00 00 	nop 
    339c:	01 00 00 00 	nop 

000033a0 <HW_trap_0x3a>:
    33a0:	91 d0 20 00 	ta  0
    33a4:	01 00 00 00 	nop 
    33a8:	01 00 00 00 	nop 
    33ac:	01 00 00 00 	nop 

000033b0 <HW_trap_0x3b>:
    33b0:	91 d0 20 00 	ta  0
    33b4:	01 00 00 00 	nop 
    33b8:	01 00 00 00 	nop 
    33bc:	01 00 00 00 	nop 

000033c0 <HW_trap_0x3c>:
    33c0:	91 d0 20 00 	ta  0
    33c4:	01 00 00 00 	nop 
    33c8:	01 00 00 00 	nop 
    33cc:	01 00 00 00 	nop 

000033d0 <HW_trap_0x3d>:
    33d0:	91 d0 20 00 	ta  0
    33d4:	01 00 00 00 	nop 
    33d8:	01 00 00 00 	nop 
    33dc:	01 00 00 00 	nop 

000033e0 <HW_trap_0x3e>:
    33e0:	91 d0 20 00 	ta  0
    33e4:	01 00 00 00 	nop 
    33e8:	01 00 00 00 	nop 
    33ec:	01 00 00 00 	nop 

000033f0 <HW_trap_0x3f>:
    33f0:	91 d0 20 00 	ta  0
    33f4:	01 00 00 00 	nop 
    33f8:	01 00 00 00 	nop 
    33fc:	01 00 00 00 	nop 

00003400 <HW_trap_0x40>:
    3400:	91 d0 20 00 	ta  0
    3404:	01 00 00 00 	nop 
    3408:	01 00 00 00 	nop 
    340c:	01 00 00 00 	nop 

00003410 <HW_trap_0x41>:
    3410:	91 d0 20 00 	ta  0
    3414:	01 00 00 00 	nop 
    3418:	01 00 00 00 	nop 
    341c:	01 00 00 00 	nop 

00003420 <HW_trap_0x42>:
    3420:	91 d0 20 00 	ta  0
    3424:	01 00 00 00 	nop 
    3428:	01 00 00 00 	nop 
    342c:	01 00 00 00 	nop 

00003430 <HW_trap_0x43>:
    3430:	91 d0 20 00 	ta  0
    3434:	01 00 00 00 	nop 
    3438:	01 00 00 00 	nop 
    343c:	01 00 00 00 	nop 

00003440 <HW_trap_0x44>:
    3440:	91 d0 20 00 	ta  0
    3444:	01 00 00 00 	nop 
    3448:	01 00 00 00 	nop 
    344c:	01 00 00 00 	nop 

00003450 <HW_trap_0x45>:
    3450:	91 d0 20 00 	ta  0
    3454:	01 00 00 00 	nop 
    3458:	01 00 00 00 	nop 
    345c:	01 00 00 00 	nop 

00003460 <HW_trap_0x46>:
    3460:	91 d0 20 00 	ta  0
    3464:	01 00 00 00 	nop 
    3468:	01 00 00 00 	nop 
    346c:	01 00 00 00 	nop 

00003470 <HW_trap_0x47>:
    3470:	91 d0 20 00 	ta  0
    3474:	01 00 00 00 	nop 
    3478:	01 00 00 00 	nop 
    347c:	01 00 00 00 	nop 

00003480 <HW_trap_0x48>:
    3480:	91 d0 20 00 	ta  0
    3484:	01 00 00 00 	nop 
    3488:	01 00 00 00 	nop 
    348c:	01 00 00 00 	nop 

00003490 <HW_trap_0x49>:
    3490:	91 d0 20 00 	ta  0
    3494:	01 00 00 00 	nop 
    3498:	01 00 00 00 	nop 
    349c:	01 00 00 00 	nop 

000034a0 <HW_trap_0x4a>:
    34a0:	91 d0 20 00 	ta  0
    34a4:	01 00 00 00 	nop 
    34a8:	01 00 00 00 	nop 
    34ac:	01 00 00 00 	nop 

000034b0 <HW_trap_0x4b>:
    34b0:	91 d0 20 00 	ta  0
    34b4:	01 00 00 00 	nop 
    34b8:	01 00 00 00 	nop 
    34bc:	01 00 00 00 	nop 

000034c0 <HW_trap_0x4c>:
    34c0:	91 d0 20 00 	ta  0
    34c4:	01 00 00 00 	nop 
    34c8:	01 00 00 00 	nop 
    34cc:	01 00 00 00 	nop 

000034d0 <HW_trap_0x4d>:
    34d0:	91 d0 20 00 	ta  0
    34d4:	01 00 00 00 	nop 
    34d8:	01 00 00 00 	nop 
    34dc:	01 00 00 00 	nop 

000034e0 <HW_trap_0x4e>:
    34e0:	91 d0 20 00 	ta  0
    34e4:	01 00 00 00 	nop 
    34e8:	01 00 00 00 	nop 
    34ec:	01 00 00 00 	nop 

000034f0 <HW_trap_0x4f>:
    34f0:	91 d0 20 00 	ta  0
    34f4:	01 00 00 00 	nop 
    34f8:	01 00 00 00 	nop 
    34fc:	01 00 00 00 	nop 

00003500 <HW_trap_0x50>:
    3500:	91 d0 20 00 	ta  0
    3504:	01 00 00 00 	nop 
    3508:	01 00 00 00 	nop 
    350c:	01 00 00 00 	nop 

00003510 <HW_trap_0x51>:
    3510:	91 d0 20 00 	ta  0
    3514:	01 00 00 00 	nop 
    3518:	01 00 00 00 	nop 
    351c:	01 00 00 00 	nop 

00003520 <HW_trap_0x52>:
    3520:	91 d0 20 00 	ta  0
    3524:	01 00 00 00 	nop 
    3528:	01 00 00 00 	nop 
    352c:	01 00 00 00 	nop 

00003530 <HW_trap_0x53>:
    3530:	91 d0 20 00 	ta  0
    3534:	01 00 00 00 	nop 
    3538:	01 00 00 00 	nop 
    353c:	01 00 00 00 	nop 

00003540 <HW_trap_0x54>:
    3540:	91 d0 20 00 	ta  0
    3544:	01 00 00 00 	nop 
    3548:	01 00 00 00 	nop 
    354c:	01 00 00 00 	nop 

00003550 <HW_trap_0x55>:
    3550:	91 d0 20 00 	ta  0
    3554:	01 00 00 00 	nop 
    3558:	01 00 00 00 	nop 
    355c:	01 00 00 00 	nop 

00003560 <HW_trap_0x56>:
    3560:	91 d0 20 00 	ta  0
    3564:	01 00 00 00 	nop 
    3568:	01 00 00 00 	nop 
    356c:	01 00 00 00 	nop 

00003570 <HW_trap_0x57>:
    3570:	91 d0 20 00 	ta  0
    3574:	01 00 00 00 	nop 
    3578:	01 00 00 00 	nop 
    357c:	01 00 00 00 	nop 

00003580 <HW_trap_0x58>:
    3580:	91 d0 20 00 	ta  0
    3584:	01 00 00 00 	nop 
    3588:	01 00 00 00 	nop 
    358c:	01 00 00 00 	nop 

00003590 <HW_trap_0x59>:
    3590:	91 d0 20 00 	ta  0
    3594:	01 00 00 00 	nop 
    3598:	01 00 00 00 	nop 
    359c:	01 00 00 00 	nop 

000035a0 <HW_trap_0x5a>:
    35a0:	91 d0 20 00 	ta  0
    35a4:	01 00 00 00 	nop 
    35a8:	01 00 00 00 	nop 
    35ac:	01 00 00 00 	nop 

000035b0 <HW_trap_0x5b>:
    35b0:	91 d0 20 00 	ta  0
    35b4:	01 00 00 00 	nop 
    35b8:	01 00 00 00 	nop 
    35bc:	01 00 00 00 	nop 

000035c0 <HW_trap_0x5c>:
    35c0:	91 d0 20 00 	ta  0
    35c4:	01 00 00 00 	nop 
    35c8:	01 00 00 00 	nop 
    35cc:	01 00 00 00 	nop 

000035d0 <HW_trap_0x5d>:
    35d0:	91 d0 20 00 	ta  0
    35d4:	01 00 00 00 	nop 
    35d8:	01 00 00 00 	nop 
    35dc:	01 00 00 00 	nop 

000035e0 <HW_trap_0x5e>:
    35e0:	91 d0 20 00 	ta  0
    35e4:	01 00 00 00 	nop 
    35e8:	01 00 00 00 	nop 
    35ec:	01 00 00 00 	nop 

000035f0 <HW_trap_0x5f>:
    35f0:	91 d0 20 00 	ta  0
    35f4:	01 00 00 00 	nop 
    35f8:	01 00 00 00 	nop 
    35fc:	01 00 00 00 	nop 

00003600 <HW_trap_0x60>:
    3600:	91 d0 20 00 	ta  0
    3604:	01 00 00 00 	nop 
    3608:	01 00 00 00 	nop 
    360c:	01 00 00 00 	nop 

00003610 <HW_trap_0x61>:
    3610:	91 d0 20 00 	ta  0
    3614:	01 00 00 00 	nop 
    3618:	01 00 00 00 	nop 
    361c:	01 00 00 00 	nop 

00003620 <HW_trap_0x62>:
    3620:	91 d0 20 00 	ta  0
    3624:	01 00 00 00 	nop 
    3628:	01 00 00 00 	nop 
    362c:	01 00 00 00 	nop 

00003630 <HW_trap_0x63>:
    3630:	91 d0 20 00 	ta  0
    3634:	01 00 00 00 	nop 
    3638:	01 00 00 00 	nop 
    363c:	01 00 00 00 	nop 

00003640 <HW_trap_0x64>:
    3640:	91 d0 20 00 	ta  0
    3644:	01 00 00 00 	nop 
    3648:	01 00 00 00 	nop 
    364c:	01 00 00 00 	nop 

00003650 <HW_trap_0x65>:
    3650:	91 d0 20 00 	ta  0
    3654:	01 00 00 00 	nop 
    3658:	01 00 00 00 	nop 
    365c:	01 00 00 00 	nop 

00003660 <HW_trap_0x66>:
    3660:	91 d0 20 00 	ta  0
    3664:	01 00 00 00 	nop 
    3668:	01 00 00 00 	nop 
    366c:	01 00 00 00 	nop 

00003670 <HW_trap_0x67>:
    3670:	91 d0 20 00 	ta  0
    3674:	01 00 00 00 	nop 
    3678:	01 00 00 00 	nop 
    367c:	01 00 00 00 	nop 

00003680 <HW_trap_0x68>:
    3680:	91 d0 20 00 	ta  0
    3684:	01 00 00 00 	nop 
    3688:	01 00 00 00 	nop 
    368c:	01 00 00 00 	nop 

00003690 <HW_trap_0x69>:
    3690:	91 d0 20 00 	ta  0
    3694:	01 00 00 00 	nop 
    3698:	01 00 00 00 	nop 
    369c:	01 00 00 00 	nop 

000036a0 <HW_trap_0x6a>:
    36a0:	91 d0 20 00 	ta  0
    36a4:	01 00 00 00 	nop 
    36a8:	01 00 00 00 	nop 
    36ac:	01 00 00 00 	nop 

000036b0 <HW_trap_0x6b>:
    36b0:	91 d0 20 00 	ta  0
    36b4:	01 00 00 00 	nop 
    36b8:	01 00 00 00 	nop 
    36bc:	01 00 00 00 	nop 

000036c0 <HW_trap_0x6c>:
    36c0:	91 d0 20 00 	ta  0
    36c4:	01 00 00 00 	nop 
    36c8:	01 00 00 00 	nop 
    36cc:	01 00 00 00 	nop 

000036d0 <HW_trap_0x6d>:
    36d0:	91 d0 20 00 	ta  0
    36d4:	01 00 00 00 	nop 
    36d8:	01 00 00 00 	nop 
    36dc:	01 00 00 00 	nop 

000036e0 <HW_trap_0x6e>:
    36e0:	91 d0 20 00 	ta  0
    36e4:	01 00 00 00 	nop 
    36e8:	01 00 00 00 	nop 
    36ec:	01 00 00 00 	nop 

000036f0 <HW_trap_0x6f>:
    36f0:	91 d0 20 00 	ta  0
    36f4:	01 00 00 00 	nop 
    36f8:	01 00 00 00 	nop 
    36fc:	01 00 00 00 	nop 

00003700 <HW_trap_0x70>:
    3700:	91 d0 20 00 	ta  0
    3704:	01 00 00 00 	nop 
    3708:	01 00 00 00 	nop 
    370c:	01 00 00 00 	nop 

00003710 <HW_trap_0x71>:
    3710:	91 d0 20 00 	ta  0
    3714:	01 00 00 00 	nop 
    3718:	01 00 00 00 	nop 
    371c:	01 00 00 00 	nop 

00003720 <HW_trap_0x72>:
    3720:	91 d0 20 00 	ta  0
    3724:	01 00 00 00 	nop 
    3728:	01 00 00 00 	nop 
    372c:	01 00 00 00 	nop 

00003730 <HW_trap_0x73>:
    3730:	91 d0 20 00 	ta  0
    3734:	01 00 00 00 	nop 
    3738:	01 00 00 00 	nop 
    373c:	01 00 00 00 	nop 

00003740 <HW_trap_0x74>:
    3740:	91 d0 20 00 	ta  0
    3744:	01 00 00 00 	nop 
    3748:	01 00 00 00 	nop 
    374c:	01 00 00 00 	nop 

00003750 <HW_trap_0x75>:
    3750:	91 d0 20 00 	ta  0
    3754:	01 00 00 00 	nop 
    3758:	01 00 00 00 	nop 
    375c:	01 00 00 00 	nop 

00003760 <HW_trap_0x76>:
    3760:	91 d0 20 00 	ta  0
    3764:	01 00 00 00 	nop 
    3768:	01 00 00 00 	nop 
    376c:	01 00 00 00 	nop 

00003770 <HW_trap_0x77>:
    3770:	91 d0 20 00 	ta  0
    3774:	01 00 00 00 	nop 
    3778:	01 00 00 00 	nop 
    377c:	01 00 00 00 	nop 

00003780 <HW_trap_0x78>:
    3780:	91 d0 20 00 	ta  0
    3784:	01 00 00 00 	nop 
    3788:	01 00 00 00 	nop 
    378c:	01 00 00 00 	nop 

00003790 <HW_trap_0x79>:
    3790:	91 d0 20 00 	ta  0
    3794:	01 00 00 00 	nop 
    3798:	01 00 00 00 	nop 
    379c:	01 00 00 00 	nop 

000037a0 <HW_trap_0x7a>:
    37a0:	91 d0 20 00 	ta  0
    37a4:	01 00 00 00 	nop 
    37a8:	01 00 00 00 	nop 
    37ac:	01 00 00 00 	nop 

000037b0 <HW_trap_0x7b>:
    37b0:	91 d0 20 00 	ta  0
    37b4:	01 00 00 00 	nop 
    37b8:	01 00 00 00 	nop 
    37bc:	01 00 00 00 	nop 

000037c0 <HW_trap_0x7c>:
    37c0:	91 d0 20 00 	ta  0
    37c4:	01 00 00 00 	nop 
    37c8:	01 00 00 00 	nop 
    37cc:	01 00 00 00 	nop 

000037d0 <HW_trap_0x7d>:
    37d0:	91 d0 20 00 	ta  0
    37d4:	01 00 00 00 	nop 
    37d8:	01 00 00 00 	nop 
    37dc:	01 00 00 00 	nop 

000037e0 <HW_trap_0x7e>:
    37e0:	91 d0 20 00 	ta  0
    37e4:	01 00 00 00 	nop 
    37e8:	01 00 00 00 	nop 
    37ec:	01 00 00 00 	nop 

000037f0 <HW_trap_0x7f>:
    37f0:	91 d0 20 00 	ta  0
    37f4:	01 00 00 00 	nop 
    37f8:	01 00 00 00 	nop 
    37fc:	01 00 00 00 	nop 

00003800 <SW_trap_0x80>:
    3800:	91 d0 20 00 	ta  0
    3804:	01 00 00 00 	nop 
    3808:	01 00 00 00 	nop 
    380c:	01 00 00 00 	nop 

00003810 <SW_trap_0x81>:
    3810:	91 d0 20 00 	ta  0
    3814:	01 00 00 00 	nop 
    3818:	01 00 00 00 	nop 
    381c:	01 00 00 00 	nop 

00003820 <SW_trap_0x82>:
    3820:	91 d0 20 00 	ta  0
    3824:	01 00 00 00 	nop 
    3828:	01 00 00 00 	nop 
    382c:	01 00 00 00 	nop 

00003830 <SW_trap_0x83>:
    3830:	91 d0 20 00 	ta  0
    3834:	01 00 00 00 	nop 
    3838:	01 00 00 00 	nop 
    383c:	01 00 00 00 	nop 

00003840 <SW_trap_0x84>:
    3840:	91 d0 20 00 	ta  0
    3844:	01 00 00 00 	nop 
    3848:	01 00 00 00 	nop 
    384c:	01 00 00 00 	nop 

00003850 <SW_trap_0x85>:
    3850:	91 d0 20 00 	ta  0
    3854:	01 00 00 00 	nop 
    3858:	01 00 00 00 	nop 
    385c:	01 00 00 00 	nop 

00003860 <SW_trap_0x86>:
    3860:	91 d0 20 00 	ta  0
    3864:	01 00 00 00 	nop 
    3868:	01 00 00 00 	nop 
    386c:	01 00 00 00 	nop 

00003870 <SW_trap_0x87>:
    3870:	91 d0 20 00 	ta  0
    3874:	01 00 00 00 	nop 
    3878:	01 00 00 00 	nop 
    387c:	01 00 00 00 	nop 

00003880 <SW_trap_0x88>:
    3880:	91 d0 20 00 	ta  0
    3884:	01 00 00 00 	nop 
    3888:	01 00 00 00 	nop 
    388c:	01 00 00 00 	nop 

00003890 <SW_trap_0x89>:
    3890:	91 d0 20 00 	ta  0
    3894:	01 00 00 00 	nop 
    3898:	01 00 00 00 	nop 
    389c:	01 00 00 00 	nop 

000038a0 <SW_trap_0x8a>:
    38a0:	91 d0 20 00 	ta  0
    38a4:	01 00 00 00 	nop 
    38a8:	01 00 00 00 	nop 
    38ac:	01 00 00 00 	nop 

000038b0 <SW_trap_0x8b>:
    38b0:	91 d0 20 00 	ta  0
    38b4:	01 00 00 00 	nop 
    38b8:	01 00 00 00 	nop 
    38bc:	01 00 00 00 	nop 

000038c0 <SW_trap_0x8c>:
    38c0:	91 d0 20 00 	ta  0
    38c4:	01 00 00 00 	nop 
    38c8:	01 00 00 00 	nop 
    38cc:	01 00 00 00 	nop 

000038d0 <SW_trap_0x8d>:
    38d0:	91 d0 20 00 	ta  0
    38d4:	01 00 00 00 	nop 
    38d8:	01 00 00 00 	nop 
    38dc:	01 00 00 00 	nop 

000038e0 <SW_trap_0x8e>:
    38e0:	91 d0 20 00 	ta  0
    38e4:	01 00 00 00 	nop 
    38e8:	01 00 00 00 	nop 
    38ec:	01 00 00 00 	nop 

000038f0 <SW_trap_0x8f>:
    38f0:	91 d0 20 00 	ta  0
    38f4:	01 00 00 00 	nop 
    38f8:	01 00 00 00 	nop 
    38fc:	01 00 00 00 	nop 

00003900 <SW_trap_0x90>:
    3900:	91 d0 20 00 	ta  0
    3904:	01 00 00 00 	nop 
    3908:	01 00 00 00 	nop 
    390c:	01 00 00 00 	nop 

00003910 <SW_trap_0x91>:
    3910:	91 d0 20 00 	ta  0
    3914:	01 00 00 00 	nop 
    3918:	01 00 00 00 	nop 
    391c:	01 00 00 00 	nop 

00003920 <SW_trap_0x92>:
    3920:	91 d0 20 00 	ta  0
    3924:	01 00 00 00 	nop 
    3928:	01 00 00 00 	nop 
    392c:	01 00 00 00 	nop 

00003930 <SW_trap_0x93>:
    3930:	91 d0 20 00 	ta  0
    3934:	01 00 00 00 	nop 
    3938:	01 00 00 00 	nop 
    393c:	01 00 00 00 	nop 

00003940 <SW_trap_0x94>:
    3940:	91 d0 20 00 	ta  0
    3944:	01 00 00 00 	nop 
    3948:	01 00 00 00 	nop 
    394c:	01 00 00 00 	nop 

00003950 <SW_trap_0x95>:
    3950:	91 d0 20 00 	ta  0
    3954:	01 00 00 00 	nop 
    3958:	01 00 00 00 	nop 
    395c:	01 00 00 00 	nop 

00003960 <SW_trap_0x96>:
    3960:	91 d0 20 00 	ta  0
    3964:	01 00 00 00 	nop 
    3968:	01 00 00 00 	nop 
    396c:	01 00 00 00 	nop 

00003970 <SW_trap_0x97>:
    3970:	91 d0 20 00 	ta  0
    3974:	01 00 00 00 	nop 
    3978:	01 00 00 00 	nop 
    397c:	01 00 00 00 	nop 

00003980 <SW_trap_0x98>:
    3980:	91 d0 20 00 	ta  0
    3984:	01 00 00 00 	nop 
    3988:	01 00 00 00 	nop 
    398c:	01 00 00 00 	nop 

00003990 <SW_trap_0x99>:
    3990:	91 d0 20 00 	ta  0
    3994:	01 00 00 00 	nop 
    3998:	01 00 00 00 	nop 
    399c:	01 00 00 00 	nop 

000039a0 <SW_trap_0x9a>:
    39a0:	91 d0 20 00 	ta  0
    39a4:	01 00 00 00 	nop 
    39a8:	01 00 00 00 	nop 
    39ac:	01 00 00 00 	nop 

000039b0 <SW_trap_0x9b>:
    39b0:	91 d0 20 00 	ta  0
    39b4:	01 00 00 00 	nop 
    39b8:	01 00 00 00 	nop 
    39bc:	01 00 00 00 	nop 

000039c0 <SW_trap_0x9c>:
    39c0:	91 d0 20 00 	ta  0
    39c4:	01 00 00 00 	nop 
    39c8:	01 00 00 00 	nop 
    39cc:	01 00 00 00 	nop 

000039d0 <SW_trap_0x9d>:
    39d0:	91 d0 20 00 	ta  0
    39d4:	01 00 00 00 	nop 
    39d8:	01 00 00 00 	nop 
    39dc:	01 00 00 00 	nop 

000039e0 <SW_trap_0x9e>:
    39e0:	91 d0 20 00 	ta  0
    39e4:	01 00 00 00 	nop 
    39e8:	01 00 00 00 	nop 
    39ec:	01 00 00 00 	nop 

000039f0 <SW_trap_0x9f>:
    39f0:	91 d0 20 00 	ta  0
    39f4:	01 00 00 00 	nop 
    39f8:	01 00 00 00 	nop 
    39fc:	01 00 00 00 	nop 

00003a00 <SW_trap_0xa0>:
    3a00:	91 d0 20 00 	ta  0
    3a04:	01 00 00 00 	nop 
    3a08:	01 00 00 00 	nop 
    3a0c:	01 00 00 00 	nop 

00003a10 <SW_trap_0xa1>:
    3a10:	91 d0 20 00 	ta  0
    3a14:	01 00 00 00 	nop 
    3a18:	01 00 00 00 	nop 
    3a1c:	01 00 00 00 	nop 

00003a20 <SW_trap_0xa2>:
    3a20:	91 d0 20 00 	ta  0
    3a24:	01 00 00 00 	nop 
    3a28:	01 00 00 00 	nop 
    3a2c:	01 00 00 00 	nop 

00003a30 <SW_trap_0xa3>:
    3a30:	91 d0 20 00 	ta  0
    3a34:	01 00 00 00 	nop 
    3a38:	01 00 00 00 	nop 
    3a3c:	01 00 00 00 	nop 

00003a40 <SW_trap_0xa4>:
    3a40:	91 d0 20 00 	ta  0
    3a44:	01 00 00 00 	nop 
    3a48:	01 00 00 00 	nop 
    3a4c:	01 00 00 00 	nop 

00003a50 <SW_trap_0xa5>:
    3a50:	91 d0 20 00 	ta  0
    3a54:	01 00 00 00 	nop 
    3a58:	01 00 00 00 	nop 
    3a5c:	01 00 00 00 	nop 

00003a60 <SW_trap_0xa6>:
    3a60:	91 d0 20 00 	ta  0
    3a64:	01 00 00 00 	nop 
    3a68:	01 00 00 00 	nop 
    3a6c:	01 00 00 00 	nop 

00003a70 <SW_trap_0xa7>:
    3a70:	91 d0 20 00 	ta  0
    3a74:	01 00 00 00 	nop 
    3a78:	01 00 00 00 	nop 
    3a7c:	01 00 00 00 	nop 

00003a80 <SW_trap_0xa8>:
    3a80:	91 d0 20 00 	ta  0
    3a84:	01 00 00 00 	nop 
    3a88:	01 00 00 00 	nop 
    3a8c:	01 00 00 00 	nop 

00003a90 <SW_trap_0xa9>:
    3a90:	91 d0 20 00 	ta  0
    3a94:	01 00 00 00 	nop 
    3a98:	01 00 00 00 	nop 
    3a9c:	01 00 00 00 	nop 

00003aa0 <SW_trap_0xaa>:
    3aa0:	91 d0 20 00 	ta  0
    3aa4:	01 00 00 00 	nop 
    3aa8:	01 00 00 00 	nop 
    3aac:	01 00 00 00 	nop 

00003ab0 <SW_trap_0xab>:
    3ab0:	91 d0 20 00 	ta  0
    3ab4:	01 00 00 00 	nop 
    3ab8:	01 00 00 00 	nop 
    3abc:	01 00 00 00 	nop 

00003ac0 <SW_trap_0xac>:
    3ac0:	91 d0 20 00 	ta  0
    3ac4:	01 00 00 00 	nop 
    3ac8:	01 00 00 00 	nop 
    3acc:	01 00 00 00 	nop 

00003ad0 <SW_trap_0xad>:
    3ad0:	91 d0 20 00 	ta  0
    3ad4:	01 00 00 00 	nop 
    3ad8:	01 00 00 00 	nop 
    3adc:	01 00 00 00 	nop 

00003ae0 <SW_trap_0xae>:
    3ae0:	91 d0 20 00 	ta  0
    3ae4:	01 00 00 00 	nop 
    3ae8:	01 00 00 00 	nop 
    3aec:	01 00 00 00 	nop 

00003af0 <SW_trap_0xaf>:
    3af0:	91 d0 20 00 	ta  0
    3af4:	01 00 00 00 	nop 
    3af8:	01 00 00 00 	nop 
    3afc:	01 00 00 00 	nop 

00003b00 <SW_trap_0xb0>:
    3b00:	91 d0 20 00 	ta  0
    3b04:	01 00 00 00 	nop 
    3b08:	01 00 00 00 	nop 
    3b0c:	01 00 00 00 	nop 

00003b10 <SW_trap_0xb1>:
    3b10:	91 d0 20 00 	ta  0
    3b14:	01 00 00 00 	nop 
    3b18:	01 00 00 00 	nop 
    3b1c:	01 00 00 00 	nop 

00003b20 <SW_trap_0xb2>:
    3b20:	91 d0 20 00 	ta  0
    3b24:	01 00 00 00 	nop 
    3b28:	01 00 00 00 	nop 
    3b2c:	01 00 00 00 	nop 

00003b30 <SW_trap_0xb3>:
    3b30:	91 d0 20 00 	ta  0
    3b34:	01 00 00 00 	nop 
    3b38:	01 00 00 00 	nop 
    3b3c:	01 00 00 00 	nop 

00003b40 <SW_trap_0xb4>:
    3b40:	91 d0 20 00 	ta  0
    3b44:	01 00 00 00 	nop 
    3b48:	01 00 00 00 	nop 
    3b4c:	01 00 00 00 	nop 

00003b50 <SW_trap_0xb5>:
    3b50:	91 d0 20 00 	ta  0
    3b54:	01 00 00 00 	nop 
    3b58:	01 00 00 00 	nop 
    3b5c:	01 00 00 00 	nop 

00003b60 <SW_trap_0xb6>:
    3b60:	91 d0 20 00 	ta  0
    3b64:	01 00 00 00 	nop 
    3b68:	01 00 00 00 	nop 
    3b6c:	01 00 00 00 	nop 

00003b70 <SW_trap_0xb7>:
    3b70:	91 d0 20 00 	ta  0
    3b74:	01 00 00 00 	nop 
    3b78:	01 00 00 00 	nop 
    3b7c:	01 00 00 00 	nop 

00003b80 <SW_trap_0xb8>:
    3b80:	91 d0 20 00 	ta  0
    3b84:	01 00 00 00 	nop 
    3b88:	01 00 00 00 	nop 
    3b8c:	01 00 00 00 	nop 

00003b90 <SW_trap_0xb9>:
    3b90:	91 d0 20 00 	ta  0
    3b94:	01 00 00 00 	nop 
    3b98:	01 00 00 00 	nop 
    3b9c:	01 00 00 00 	nop 

00003ba0 <SW_trap_0xba>:
    3ba0:	91 d0 20 00 	ta  0
    3ba4:	01 00 00 00 	nop 
    3ba8:	01 00 00 00 	nop 
    3bac:	01 00 00 00 	nop 

00003bb0 <SW_trap_0xbb>:
    3bb0:	91 d0 20 00 	ta  0
    3bb4:	01 00 00 00 	nop 
    3bb8:	01 00 00 00 	nop 
    3bbc:	01 00 00 00 	nop 

00003bc0 <SW_trap_0xbc>:
    3bc0:	91 d0 20 00 	ta  0
    3bc4:	01 00 00 00 	nop 
    3bc8:	01 00 00 00 	nop 
    3bcc:	01 00 00 00 	nop 

00003bd0 <SW_trap_0xbd>:
    3bd0:	91 d0 20 00 	ta  0
    3bd4:	01 00 00 00 	nop 
    3bd8:	01 00 00 00 	nop 
    3bdc:	01 00 00 00 	nop 

00003be0 <SW_trap_0xbe>:
    3be0:	91 d0 20 00 	ta  0
    3be4:	01 00 00 00 	nop 
    3be8:	01 00 00 00 	nop 
    3bec:	01 00 00 00 	nop 

00003bf0 <SW_trap_0xbf>:
    3bf0:	91 d0 20 00 	ta  0
    3bf4:	01 00 00 00 	nop 
    3bf8:	01 00 00 00 	nop 
    3bfc:	01 00 00 00 	nop 

00003c00 <SW_trap_0xc0>:
    3c00:	91 d0 20 00 	ta  0
    3c04:	01 00 00 00 	nop 
    3c08:	01 00 00 00 	nop 
    3c0c:	01 00 00 00 	nop 

00003c10 <SW_trap_0xc1>:
    3c10:	91 d0 20 00 	ta  0
    3c14:	01 00 00 00 	nop 
    3c18:	01 00 00 00 	nop 
    3c1c:	01 00 00 00 	nop 

00003c20 <SW_trap_0xc2>:
    3c20:	91 d0 20 00 	ta  0
    3c24:	01 00 00 00 	nop 
    3c28:	01 00 00 00 	nop 
    3c2c:	01 00 00 00 	nop 

00003c30 <SW_trap_0xc3>:
    3c30:	91 d0 20 00 	ta  0
    3c34:	01 00 00 00 	nop 
    3c38:	01 00 00 00 	nop 
    3c3c:	01 00 00 00 	nop 

00003c40 <SW_trap_0xc4>:
    3c40:	91 d0 20 00 	ta  0
    3c44:	01 00 00 00 	nop 
    3c48:	01 00 00 00 	nop 
    3c4c:	01 00 00 00 	nop 

00003c50 <SW_trap_0xc5>:
    3c50:	91 d0 20 00 	ta  0
    3c54:	01 00 00 00 	nop 
    3c58:	01 00 00 00 	nop 
    3c5c:	01 00 00 00 	nop 

00003c60 <SW_trap_0xc6>:
    3c60:	91 d0 20 00 	ta  0
    3c64:	01 00 00 00 	nop 
    3c68:	01 00 00 00 	nop 
    3c6c:	01 00 00 00 	nop 

00003c70 <SW_trap_0xc7>:
    3c70:	91 d0 20 00 	ta  0
    3c74:	01 00 00 00 	nop 
    3c78:	01 00 00 00 	nop 
    3c7c:	01 00 00 00 	nop 

00003c80 <SW_trap_0xc8>:
    3c80:	91 d0 20 00 	ta  0
    3c84:	01 00 00 00 	nop 
    3c88:	01 00 00 00 	nop 
    3c8c:	01 00 00 00 	nop 

00003c90 <SW_trap_0xc9>:
    3c90:	91 d0 20 00 	ta  0
    3c94:	01 00 00 00 	nop 
    3c98:	01 00 00 00 	nop 
    3c9c:	01 00 00 00 	nop 

00003ca0 <SW_trap_0xca>:
    3ca0:	91 d0 20 00 	ta  0
    3ca4:	01 00 00 00 	nop 
    3ca8:	01 00 00 00 	nop 
    3cac:	01 00 00 00 	nop 

00003cb0 <SW_trap_0xcb>:
    3cb0:	91 d0 20 00 	ta  0
    3cb4:	01 00 00 00 	nop 
    3cb8:	01 00 00 00 	nop 
    3cbc:	01 00 00 00 	nop 

00003cc0 <SW_trap_0xcc>:
    3cc0:	91 d0 20 00 	ta  0
    3cc4:	01 00 00 00 	nop 
    3cc8:	01 00 00 00 	nop 
    3ccc:	01 00 00 00 	nop 

00003cd0 <SW_trap_0xcd>:
    3cd0:	91 d0 20 00 	ta  0
    3cd4:	01 00 00 00 	nop 
    3cd8:	01 00 00 00 	nop 
    3cdc:	01 00 00 00 	nop 

00003ce0 <SW_trap_0xce>:
    3ce0:	91 d0 20 00 	ta  0
    3ce4:	01 00 00 00 	nop 
    3ce8:	01 00 00 00 	nop 
    3cec:	01 00 00 00 	nop 

00003cf0 <SW_trap_0xcf>:
    3cf0:	91 d0 20 00 	ta  0
    3cf4:	01 00 00 00 	nop 
    3cf8:	01 00 00 00 	nop 
    3cfc:	01 00 00 00 	nop 

00003d00 <SW_trap_0xd0>:
    3d00:	91 d0 20 00 	ta  0
    3d04:	01 00 00 00 	nop 
    3d08:	01 00 00 00 	nop 
    3d0c:	01 00 00 00 	nop 

00003d10 <SW_trap_0xd1>:
    3d10:	91 d0 20 00 	ta  0
    3d14:	01 00 00 00 	nop 
    3d18:	01 00 00 00 	nop 
    3d1c:	01 00 00 00 	nop 

00003d20 <SW_trap_0xd2>:
    3d20:	91 d0 20 00 	ta  0
    3d24:	01 00 00 00 	nop 
    3d28:	01 00 00 00 	nop 
    3d2c:	01 00 00 00 	nop 

00003d30 <SW_trap_0xd3>:
    3d30:	91 d0 20 00 	ta  0
    3d34:	01 00 00 00 	nop 
    3d38:	01 00 00 00 	nop 
    3d3c:	01 00 00 00 	nop 

00003d40 <SW_trap_0xd4>:
    3d40:	91 d0 20 00 	ta  0
    3d44:	01 00 00 00 	nop 
    3d48:	01 00 00 00 	nop 
    3d4c:	01 00 00 00 	nop 

00003d50 <SW_trap_0xd5>:
    3d50:	91 d0 20 00 	ta  0
    3d54:	01 00 00 00 	nop 
    3d58:	01 00 00 00 	nop 
    3d5c:	01 00 00 00 	nop 

00003d60 <SW_trap_0xd6>:
    3d60:	91 d0 20 00 	ta  0
    3d64:	01 00 00 00 	nop 
    3d68:	01 00 00 00 	nop 
    3d6c:	01 00 00 00 	nop 

00003d70 <SW_trap_0xd7>:
    3d70:	91 d0 20 00 	ta  0
    3d74:	01 00 00 00 	nop 
    3d78:	01 00 00 00 	nop 
    3d7c:	01 00 00 00 	nop 

00003d80 <SW_trap_0xd8>:
    3d80:	91 d0 20 00 	ta  0
    3d84:	01 00 00 00 	nop 
    3d88:	01 00 00 00 	nop 
    3d8c:	01 00 00 00 	nop 

00003d90 <SW_trap_0xd9>:
    3d90:	91 d0 20 00 	ta  0
    3d94:	01 00 00 00 	nop 
    3d98:	01 00 00 00 	nop 
    3d9c:	01 00 00 00 	nop 

00003da0 <SW_trap_0xda>:
    3da0:	91 d0 20 00 	ta  0
    3da4:	01 00 00 00 	nop 
    3da8:	01 00 00 00 	nop 
    3dac:	01 00 00 00 	nop 

00003db0 <SW_trap_0xdb>:
    3db0:	91 d0 20 00 	ta  0
    3db4:	01 00 00 00 	nop 
    3db8:	01 00 00 00 	nop 
    3dbc:	01 00 00 00 	nop 

00003dc0 <SW_trap_0xdc>:
    3dc0:	91 d0 20 00 	ta  0
    3dc4:	01 00 00 00 	nop 
    3dc8:	01 00 00 00 	nop 
    3dcc:	01 00 00 00 	nop 

00003dd0 <SW_trap_0xdd>:
    3dd0:	91 d0 20 00 	ta  0
    3dd4:	01 00 00 00 	nop 
    3dd8:	01 00 00 00 	nop 
    3ddc:	01 00 00 00 	nop 

00003de0 <SW_trap_0xde>:
    3de0:	91 d0 20 00 	ta  0
    3de4:	01 00 00 00 	nop 
    3de8:	01 00 00 00 	nop 
    3dec:	01 00 00 00 	nop 

00003df0 <SW_trap_0xdf>:
    3df0:	91 d0 20 00 	ta  0
    3df4:	01 00 00 00 	nop 
    3df8:	01 00 00 00 	nop 
    3dfc:	01 00 00 00 	nop 

00003e00 <SW_trap_0xe0>:
    3e00:	91 d0 20 00 	ta  0
    3e04:	01 00 00 00 	nop 
    3e08:	01 00 00 00 	nop 
    3e0c:	01 00 00 00 	nop 

00003e10 <SW_trap_0xe1>:
    3e10:	91 d0 20 00 	ta  0
    3e14:	01 00 00 00 	nop 
    3e18:	01 00 00 00 	nop 
    3e1c:	01 00 00 00 	nop 

00003e20 <SW_trap_0xe2>:
    3e20:	91 d0 20 00 	ta  0
    3e24:	01 00 00 00 	nop 
    3e28:	01 00 00 00 	nop 
    3e2c:	01 00 00 00 	nop 

00003e30 <SW_trap_0xe3>:
    3e30:	91 d0 20 00 	ta  0
    3e34:	01 00 00 00 	nop 
    3e38:	01 00 00 00 	nop 
    3e3c:	01 00 00 00 	nop 

00003e40 <SW_trap_0xe4>:
    3e40:	91 d0 20 00 	ta  0
    3e44:	01 00 00 00 	nop 
    3e48:	01 00 00 00 	nop 
    3e4c:	01 00 00 00 	nop 

00003e50 <SW_trap_0xe5>:
    3e50:	91 d0 20 00 	ta  0
    3e54:	01 00 00 00 	nop 
    3e58:	01 00 00 00 	nop 
    3e5c:	01 00 00 00 	nop 

00003e60 <SW_trap_0xe6>:
    3e60:	91 d0 20 00 	ta  0
    3e64:	01 00 00 00 	nop 
    3e68:	01 00 00 00 	nop 
    3e6c:	01 00 00 00 	nop 

00003e70 <SW_trap_0xe7>:
    3e70:	91 d0 20 00 	ta  0
    3e74:	01 00 00 00 	nop 
    3e78:	01 00 00 00 	nop 
    3e7c:	01 00 00 00 	nop 

00003e80 <SW_trap_0xe8>:
    3e80:	91 d0 20 00 	ta  0
    3e84:	01 00 00 00 	nop 
    3e88:	01 00 00 00 	nop 
    3e8c:	01 00 00 00 	nop 

00003e90 <SW_trap_0xe9>:
    3e90:	91 d0 20 00 	ta  0
    3e94:	01 00 00 00 	nop 
    3e98:	01 00 00 00 	nop 
    3e9c:	01 00 00 00 	nop 

00003ea0 <SW_trap_0xea>:
    3ea0:	91 d0 20 00 	ta  0
    3ea4:	01 00 00 00 	nop 
    3ea8:	01 00 00 00 	nop 
    3eac:	01 00 00 00 	nop 

00003eb0 <SW_trap_0xeb>:
    3eb0:	91 d0 20 00 	ta  0
    3eb4:	01 00 00 00 	nop 
    3eb8:	01 00 00 00 	nop 
    3ebc:	01 00 00 00 	nop 

00003ec0 <SW_trap_0xec>:
    3ec0:	91 d0 20 00 	ta  0
    3ec4:	01 00 00 00 	nop 
    3ec8:	01 00 00 00 	nop 
    3ecc:	01 00 00 00 	nop 

00003ed0 <SW_trap_0xed>:
    3ed0:	91 d0 20 00 	ta  0
    3ed4:	01 00 00 00 	nop 
    3ed8:	01 00 00 00 	nop 
    3edc:	01 00 00 00 	nop 

00003ee0 <SW_trap_0xee>:
    3ee0:	91 d0 20 00 	ta  0
    3ee4:	01 00 00 00 	nop 
    3ee8:	01 00 00 00 	nop 
    3eec:	01 00 00 00 	nop 

00003ef0 <SW_trap_0xef>:
    3ef0:	91 d0 20 00 	ta  0
    3ef4:	01 00 00 00 	nop 
    3ef8:	01 00 00 00 	nop 
    3efc:	01 00 00 00 	nop 

00003f00 <SW_trap_0xf0>:
    3f00:	91 d0 20 00 	ta  0
    3f04:	01 00 00 00 	nop 
    3f08:	01 00 00 00 	nop 
    3f0c:	01 00 00 00 	nop 

00003f10 <SW_trap_0xf1>:
    3f10:	91 d0 20 00 	ta  0
    3f14:	01 00 00 00 	nop 
    3f18:	01 00 00 00 	nop 
    3f1c:	01 00 00 00 	nop 

00003f20 <SW_trap_0xf2>:
    3f20:	91 d0 20 00 	ta  0
    3f24:	01 00 00 00 	nop 
    3f28:	01 00 00 00 	nop 
    3f2c:	01 00 00 00 	nop 

00003f30 <SW_trap_0xf3>:
    3f30:	91 d0 20 00 	ta  0
    3f34:	01 00 00 00 	nop 
    3f38:	01 00 00 00 	nop 
    3f3c:	01 00 00 00 	nop 

00003f40 <SW_trap_0xf4>:
    3f40:	91 d0 20 00 	ta  0
    3f44:	01 00 00 00 	nop 
    3f48:	01 00 00 00 	nop 
    3f4c:	01 00 00 00 	nop 

00003f50 <SW_trap_0xf5>:
    3f50:	91 d0 20 00 	ta  0
    3f54:	01 00 00 00 	nop 
    3f58:	01 00 00 00 	nop 
    3f5c:	01 00 00 00 	nop 

00003f60 <SW_trap_0xf6>:
    3f60:	91 d0 20 00 	ta  0
    3f64:	01 00 00 00 	nop 
    3f68:	01 00 00 00 	nop 
    3f6c:	01 00 00 00 	nop 

00003f70 <SW_trap_0xf7>:
    3f70:	91 d0 20 00 	ta  0
    3f74:	01 00 00 00 	nop 
    3f78:	01 00 00 00 	nop 
    3f7c:	01 00 00 00 	nop 

00003f80 <SW_trap_0xf8>:
    3f80:	91 d0 20 00 	ta  0
    3f84:	01 00 00 00 	nop 
    3f88:	01 00 00 00 	nop 
    3f8c:	01 00 00 00 	nop 

00003f90 <SW_trap_0xf9>:
    3f90:	91 d0 20 00 	ta  0
    3f94:	01 00 00 00 	nop 
    3f98:	01 00 00 00 	nop 
    3f9c:	01 00 00 00 	nop 

00003fa0 <SW_trap_0xfa>:
    3fa0:	91 d0 20 00 	ta  0
    3fa4:	01 00 00 00 	nop 
    3fa8:	01 00 00 00 	nop 
    3fac:	01 00 00 00 	nop 

00003fb0 <SW_trap_0xfb>:
    3fb0:	91 d0 20 00 	ta  0
    3fb4:	01 00 00 00 	nop 
    3fb8:	01 00 00 00 	nop 
    3fbc:	01 00 00 00 	nop 

00003fc0 <SW_trap_0xfc>:
    3fc0:	91 d0 20 00 	ta  0
    3fc4:	01 00 00 00 	nop 
    3fc8:	01 00 00 00 	nop 
    3fcc:	01 00 00 00 	nop 

00003fd0 <SW_trap_0xfd>:
    3fd0:	91 d0 20 00 	ta  0
    3fd4:	01 00 00 00 	nop 
    3fd8:	01 00 00 00 	nop 
    3fdc:	01 00 00 00 	nop 

00003fe0 <SW_trap_0xfe>:
    3fe0:	91 d0 20 00 	ta  0
    3fe4:	01 00 00 00 	nop 
    3fe8:	01 00 00 00 	nop 
    3fec:	01 00 00 00 	nop 
    3ff0:	01 00 00 00 	nop 
    3ff4:	01 00 00 00 	nop 
    3ff8:	01 00 00 00 	nop 
    3ffc:	01 00 00 00 	nop 

00004000 <main>:
    4000:	84 10 20 03 	mov  3, %g2	! 3 <start+0x3>
    4004:	86 10 20 03 	mov  3, %g3
    4008:	88 10 20 05 	mov  5, %g4
    400c:	8a 10 20 05 	mov  5, %g5
    4010:	8c 80 80 24 	adddcc  %g2, %g4, %g6
    4014:	12 80 00 04 	bne  4024 <next>
    4018:	01 00 00 00 	nop 
    401c:	10 80 00 07 	b  4038 <end>
    4020:	01 00 00 00 	nop 

00004024 <next>:
    4024:	8a 80 c0 27 	adddcc  %g3, %g7, %g5
    4028:	02 80 00 03 	be  4034 <next1>
    402c:	01 00 00 00 	nop 
    4030:	10 80 00 02 	b  4038 <end>

00004034 <next1>:
    4034:	86 00 c0 23 	addd  %g3, %g3, %g3

00004038 <end>:
    4038:	91 d0 20 00 	ta  0
    403c:	00 00 54 08 	unimp  0x5408
    4040:	00 00 54 dc 	unimp  0x54dc
    4044:	00 00 54 dc 	unimp  0x54dc
    4048:	00 00 54 dc 	unimp  0x54dc
    404c:	00 00 54 dc 	unimp  0x54dc
    4050:	00 00 54 dc 	unimp  0x54dc
    4054:	00 00 54 dc 	unimp  0x54dc
    4058:	00 00 54 dc 	unimp  0x54dc
    405c:	00 00 54 dc 	unimp  0x54dc
    4060:	00 00 54 dc 	unimp  0x54dc
    4064:	00 00 54 dc 	unimp  0x54dc
    4068:	00 00 54 dc 	unimp  0x54dc
    406c:	00 00 54 dc 	unimp  0x54dc
    4070:	00 00 54 dc 	unimp  0x54dc
    4074:	00 00 54 dc 	unimp  0x54dc
    4078:	00 00 54 dc 	unimp  0x54dc
    407c:	00 00 54 dc 	unimp  0x54dc
    4080:	00 00 54 dc 	unimp  0x54dc
    4084:	00 00 54 dc 	unimp  0x54dc
    4088:	00 00 54 dc 	unimp  0x54dc
    408c:	00 00 54 dc 	unimp  0x54dc
    4090:	00 00 54 dc 	unimp  0x54dc
    4094:	00 00 54 dc 	unimp  0x54dc
    4098:	00 00 54 ac 	unimp  0x54ac
    409c:	00 00 54 dc 	unimp  0x54dc
    40a0:	00 00 54 dc 	unimp  0x54dc
    40a4:	00 00 54 dc 	unimp  0x54dc
    40a8:	00 00 54 dc 	unimp  0x54dc
    40ac:	00 00 54 dc 	unimp  0x54dc
    40b0:	00 00 54 dc 	unimp  0x54dc
    40b4:	00 00 54 dc 	unimp  0x54dc
    40b8:	00 00 54 dc 	unimp  0x54dc
    40bc:	00 00 54 14 	unimp  0x5414
    40c0:	00 00 54 dc 	unimp  0x54dc
    40c4:	00 00 51 74 	unimp  0x5174
    40c8:	00 00 54 c8 	unimp  0x54c8
    40cc:	00 00 54 dc 	unimp  0x54dc
    40d0:	00 00 54 dc 	unimp  0x54dc
    40d4:	00 00 54 dc 	unimp  0x54dc
    40d8:	00 00 54 dc 	unimp  0x54dc
    40dc:	00 00 54 c8 	unimp  0x54c8
    40e0:	00 00 54 dc 	unimp  0x54dc
    40e4:	00 00 54 dc 	unimp  0x54dc
    40e8:	00 00 54 dc 	unimp  0x54dc
    40ec:	00 00 54 dc 	unimp  0x54dc
    40f0:	00 00 54 dc 	unimp  0x54dc
    40f4:	00 00 54 9c 	unimp  0x549c
    40f8:	00 00 53 a4 	unimp  0x53a4
    40fc:	00 00 54 dc 	unimp  0x54dc
    4100:	00 00 54 dc 	unimp  0x54dc
    4104:	00 00 52 34 	unimp  0x5234
    4108:	00 00 54 dc 	unimp  0x54dc
    410c:	00 00 55 64 	unimp  0x5564
    4110:	00 00 54 dc 	unimp  0x54dc
    4114:	00 00 54 dc 	unimp  0x54dc
    4118:	00 00 54 b8 	unimp  0x54b8
    411c:	00 00 4e fc 	unimp  0x4efc
    4120:	00 00 4f 38 	unimp  0x4f38
    4124:	00 00 4f 38 	unimp  0x4f38
    4128:	00 00 4f 10 	unimp  0x4f10
    412c:	00 00 4f 38 	unimp  0x4f38
    4130:	00 00 4f 38 	unimp  0x4f38
    4134:	00 00 4f 38 	unimp  0x4f38
    4138:	00 00 4f 38 	unimp  0x4f38
    413c:	00 00 4f 38 	unimp  0x4f38
    4140:	00 00 4f 38 	unimp  0x4f38
    4144:	00 00 4f 38 	unimp  0x4f38
    4148:	00 00 4e e8 	unimp  0x4ee8
    414c:	00 00 4f 38 	unimp  0x4f38
    4150:	00 00 4e d4 	unimp  0x4ed4
    4154:	00 00 4f 38 	unimp  0x4f38
    4158:	00 00 4f 38 	unimp  0x4f38
    415c:	00 00 4f 24 	unimp  0x4f24

00004160 <memcpy>:
    4160:	9d e3 bf 98 	save  %sp, -104, %sp
    4164:	f0 27 a0 44 	st  %i0, [ %fp + 0x44 ]
    4168:	f2 27 a0 48 	st  %i1, [ %fp + 0x48 ]
    416c:	f4 27 a0 4c 	st  %i2, [ %fp + 0x4c ]
    4170:	c0 27 bf fc 	clr  [ %fp + -4 ]
    4174:	10 80 00 0d 	b  41a8 <memcpy+0x48>
    4178:	01 00 00 00 	nop 
    417c:	c2 07 bf fc 	ld  [ %fp + -4 ], %g1
    4180:	c4 07 a0 44 	ld  [ %fp + 0x44 ], %g2
    4184:	82 00 80 01 	add  %g2, %g1, %g1
    4188:	c4 07 bf fc 	ld  [ %fp + -4 ], %g2
    418c:	c6 07 a0 48 	ld  [ %fp + 0x48 ], %g3
    4190:	84 00 c0 02 	add  %g3, %g2, %g2
    4194:	c4 08 80 00 	ldub  [ %g2 ], %g2
    4198:	c4 28 40 00 	stb  %g2, [ %g1 ]
    419c:	c2 07 bf fc 	ld  [ %fp + -4 ], %g1
    41a0:	82 00 60 01 	inc  %g1
    41a4:	c2 27 bf fc 	st  %g1, [ %fp + -4 ]
    41a8:	c4 07 bf fc 	ld  [ %fp + -4 ], %g2
    41ac:	c2 07 a0 4c 	ld  [ %fp + 0x4c ], %g1
    41b0:	80 a0 80 01 	cmp  %g2, %g1
    41b4:	06 bf ff f2 	bl  417c <memcpy+0x1c>
    41b8:	01 00 00 00 	nop 
    41bc:	c2 07 a0 44 	ld  [ %fp + 0x44 ], %g1
    41c0:	b0 10 00 01 	mov  %g1, %i0
    41c4:	81 e8 00 00 	restore 
    41c8:	81 c3 e0 08 	retl 
    41cc:	01 00 00 00 	nop 

000041d0 <strnlen>:
    41d0:	9d e3 bf 98 	save  %sp, -104, %sp
    41d4:	f0 27 a0 44 	st  %i0, [ %fp + 0x44 ]
    41d8:	f2 27 a0 48 	st  %i1, [ %fp + 0x48 ]
    41dc:	c2 07 a0 44 	ld  [ %fp + 0x44 ], %g1
    41e0:	c2 27 bf fc 	st  %g1, [ %fp + -4 ]
    41e4:	10 80 00 05 	b  41f8 <strnlen+0x28>
    41e8:	01 00 00 00 	nop 
    41ec:	c2 07 bf fc 	ld  [ %fp + -4 ], %g1
    41f0:	82 00 60 01 	inc  %g1
    41f4:	c2 27 bf fc 	st  %g1, [ %fp + -4 ]
    41f8:	c2 07 bf fc 	ld  [ %fp + -4 ], %g1
    41fc:	c2 08 40 00 	ldub  [ %g1 ], %g1
    4200:	83 28 60 18 	sll  %g1, 0x18, %g1
    4204:	83 38 60 18 	sra  %g1, 0x18, %g1
    4208:	80 a0 60 00 	cmp  %g1, 0
    420c:	02 80 00 0d 	be  4240 <strnlen+0x70>
    4210:	01 00 00 00 	nop 
    4214:	c2 07 a0 48 	ld  [ %fp + 0x48 ], %g1
    4218:	82 18 60 00 	xor  %g1, 0, %g1
    421c:	80 a0 00 01 	cmp  %g0, %g1
    4220:	82 40 20 00 	addx  %g0, 0, %g1
    4224:	c4 07 a0 48 	ld  [ %fp + 0x48 ], %g2
    4228:	84 00 bf ff 	add  %g2, -1, %g2
    422c:	c4 27 a0 48 	st  %g2, [ %fp + 0x48 ]
    4230:	82 08 60 ff 	and  %g1, 0xff, %g1
    4234:	80 a0 60 00 	cmp  %g1, 0
    4238:	12 bf ff ed 	bne  41ec <strnlen+0x1c>
    423c:	01 00 00 00 	nop 
    4240:	c4 07 bf fc 	ld  [ %fp + -4 ], %g2
    4244:	c2 07 a0 44 	ld  [ %fp + 0x44 ], %g1
    4248:	82 20 80 01 	sub  %g2, %g1, %g1
    424c:	b0 10 00 01 	mov  %g1, %i0
    4250:	81 e8 00 00 	restore 
    4254:	81 c3 e0 08 	retl 
    4258:	01 00 00 00 	nop 

0000425c <skip_atoi>:
    425c:	9d e3 bf 98 	save  %sp, -104, %sp
    4260:	f0 27 a0 44 	st  %i0, [ %fp + 0x44 ]
    4264:	c0 27 bf fc 	clr  [ %fp + -4 ]
    4268:	10 80 00 11 	b  42ac <skip_atoi+0x50>
    426c:	01 00 00 00 	nop 
    4270:	c2 07 bf fc 	ld  [ %fp + -4 ], %g1
    4274:	82 00 40 01 	add  %g1, %g1, %g1
    4278:	85 28 60 02 	sll  %g1, 2, %g2
    427c:	86 00 40 02 	add  %g1, %g2, %g3
    4280:	c2 07 a0 44 	ld  [ %fp + 0x44 ], %g1
    4284:	c2 00 40 00 	ld  [ %g1 ], %g1
    4288:	c4 08 40 00 	ldub  [ %g1 ], %g2
    428c:	85 28 a0 18 	sll  %g2, 0x18, %g2
    4290:	85 38 a0 18 	sra  %g2, 0x18, %g2
    4294:	84 00 c0 02 	add  %g3, %g2, %g2
    4298:	84 00 bf d0 	add  %g2, -48, %g2
    429c:	c4 27 bf fc 	st  %g2, [ %fp + -4 ]
    42a0:	84 00 60 01 	add  %g1, 1, %g2
    42a4:	c2 07 a0 44 	ld  [ %fp + 0x44 ], %g1
    42a8:	c4 20 40 00 	st  %g2, [ %g1 ]
    42ac:	c2 07 a0 44 	ld  [ %fp + 0x44 ], %g1
    42b0:	c2 00 40 00 	ld  [ %g1 ], %g1
    42b4:	c2 08 40 00 	ldub  [ %g1 ], %g1
    42b8:	83 28 60 18 	sll  %g1, 0x18, %g1
    42bc:	83 38 60 18 	sra  %g1, 0x18, %g1
    42c0:	80 a0 60 2f 	cmp  %g1, 0x2f
    42c4:	04 80 00 0a 	ble  42ec <skip_atoi+0x90>
    42c8:	01 00 00 00 	nop 
    42cc:	c2 07 a0 44 	ld  [ %fp + 0x44 ], %g1
    42d0:	c2 00 40 00 	ld  [ %g1 ], %g1
    42d4:	c2 08 40 00 	ldub  [ %g1 ], %g1
    42d8:	83 28 60 18 	sll  %g1, 0x18, %g1
    42dc:	83 38 60 18 	sra  %g1, 0x18, %g1
    42e0:	80 a0 60 39 	cmp  %g1, 0x39
    42e4:	04 bf ff e3 	ble  4270 <skip_atoi+0x14>
    42e8:	01 00 00 00 	nop 
    42ec:	c2 07 bf fc 	ld  [ %fp + -4 ], %g1
    42f0:	b0 10 00 01 	mov  %g1, %i0
    42f4:	81 e8 00 00 	restore 
    42f8:	81 c3 e0 08 	retl 
    42fc:	01 00 00 00 	nop 

00004300 <number>:
    4300:	9d e3 bf 50 	save  %sp, -176, %sp
    4304:	f0 27 a0 44 	st  %i0, [ %fp + 0x44 ]
    4308:	f2 27 a0 48 	st  %i1, [ %fp + 0x48 ]
    430c:	f4 27 a0 4c 	st  %i2, [ %fp + 0x4c ]
    4310:	f6 27 a0 50 	st  %i3, [ %fp + 0x50 ]
    4314:	f8 27 a0 54 	st  %i4, [ %fp + 0x54 ]
    4318:	fa 27 a0 58 	st  %i5, [ %fp + 0x58 ]
    431c:	03 10 00 00 	sethi  %hi(0x40000000), %g1
    4320:	82 10 60 00 	mov  %g1, %g1	! 40000000 <digits>
    4324:	c2 00 40 00 	ld  [ %g1 ], %g1
    4328:	c2 27 bf f8 	st  %g1, [ %fp + -8 ]
    432c:	c2 07 a0 58 	ld  [ %fp + 0x58 ], %g1
    4330:	82 08 60 40 	and  %g1, 0x40, %g1
    4334:	80 a0 60 00 	cmp  %g1, 0
    4338:	02 80 00 06 	be  4350 <number+0x50>
    433c:	01 00 00 00 	nop 
    4340:	03 10 00 00 	sethi  %hi(0x40000000), %g1
    4344:	82 10 60 04 	or  %g1, 4, %g1	! 40000004 <upper_digits>
    4348:	c2 00 40 00 	ld  [ %g1 ], %g1
    434c:	c2 27 bf f8 	st  %g1, [ %fp + -8 ]
    4350:	c2 07 a0 58 	ld  [ %fp + 0x58 ], %g1
    4354:	82 08 60 10 	and  %g1, 0x10, %g1
    4358:	80 a0 60 00 	cmp  %g1, 0
    435c:	02 80 00 05 	be  4370 <number+0x70>
    4360:	01 00 00 00 	nop 
    4364:	c2 07 a0 58 	ld  [ %fp + 0x58 ], %g1
    4368:	82 08 7f fe 	and  %g1, -2, %g1
    436c:	c2 27 a0 58 	st  %g1, [ %fp + 0x58 ]
    4370:	c2 07 a0 4c 	ld  [ %fp + 0x4c ], %g1
    4374:	80 a0 60 01 	cmp  %g1, 1
    4378:	04 80 00 06 	ble  4390 <number+0x90>
    437c:	01 00 00 00 	nop 
    4380:	c2 07 a0 4c 	ld  [ %fp + 0x4c ], %g1
    4384:	80 a0 60 24 	cmp  %g1, 0x24
    4388:	04 80 00 05 	ble  439c <number+0x9c>
    438c:	01 00 00 00 	nop 
    4390:	82 10 20 00 	clr  %g1	! 0 <start>
    4394:	10 80 01 28 	b  4834 <number+0x534>
    4398:	01 00 00 00 	nop 
    439c:	c2 07 a0 58 	ld  [ %fp + 0x58 ], %g1
    43a0:	82 08 60 01 	and  %g1, 1, %g1
    43a4:	80 a0 60 00 	cmp  %g1, 0
    43a8:	02 80 00 05 	be  43bc <number+0xbc>
    43ac:	01 00 00 00 	nop 
    43b0:	82 10 20 30 	mov  0x30, %g1	! 30 <start+0x30>
    43b4:	10 80 00 03 	b  43c0 <number+0xc0>
    43b8:	01 00 00 00 	nop 
    43bc:	82 10 20 20 	mov  0x20, %g1	! 20 <start+0x20>
    43c0:	c2 2f bf f3 	stb  %g1, [ %fp + -13 ]
    43c4:	c0 2f bf ff 	clrb  [ %fp + -1 ]
    43c8:	c2 07 a0 58 	ld  [ %fp + 0x58 ], %g1
    43cc:	82 08 60 02 	and  %g1, 2, %g1
    43d0:	80 a0 60 00 	cmp  %g1, 0
    43d4:	02 80 00 26 	be  446c <number+0x16c>
    43d8:	01 00 00 00 	nop 
    43dc:	c2 07 a0 48 	ld  [ %fp + 0x48 ], %g1
    43e0:	80 a0 60 00 	cmp  %g1, 0
    43e4:	16 80 00 0c 	bge  4414 <number+0x114>
    43e8:	01 00 00 00 	nop 
    43ec:	82 10 20 2d 	mov  0x2d, %g1	! 2d <start+0x2d>
    43f0:	c2 2f bf ff 	stb  %g1, [ %fp + -1 ]
    43f4:	c2 07 a0 48 	ld  [ %fp + 0x48 ], %g1
    43f8:	82 20 00 01 	neg  %g1
    43fc:	c2 27 a0 48 	st  %g1, [ %fp + 0x48 ]
    4400:	c2 07 a0 50 	ld  [ %fp + 0x50 ], %g1
    4404:	82 00 7f ff 	add  %g1, -1, %g1
    4408:	c2 27 a0 50 	st  %g1, [ %fp + 0x50 ]
    440c:	10 80 00 18 	b  446c <number+0x16c>
    4410:	01 00 00 00 	nop 
    4414:	c2 07 a0 58 	ld  [ %fp + 0x58 ], %g1
    4418:	82 08 60 04 	and  %g1, 4, %g1
    441c:	80 a0 60 00 	cmp  %g1, 0
    4420:	02 80 00 09 	be  4444 <number+0x144>
    4424:	01 00 00 00 	nop 
    4428:	82 10 20 2b 	mov  0x2b, %g1	! 2b <start+0x2b>
    442c:	c2 2f bf ff 	stb  %g1, [ %fp + -1 ]
    4430:	c2 07 a0 50 	ld  [ %fp + 0x50 ], %g1
    4434:	82 00 7f ff 	add  %g1, -1, %g1
    4438:	c2 27 a0 50 	st  %g1, [ %fp + 0x50 ]
    443c:	10 80 00 0c 	b  446c <number+0x16c>
    4440:	01 00 00 00 	nop 
    4444:	c2 07 a0 58 	ld  [ %fp + 0x58 ], %g1
    4448:	82 08 60 08 	and  %g1, 8, %g1
    444c:	80 a0 60 00 	cmp  %g1, 0
    4450:	02 80 00 07 	be  446c <number+0x16c>
    4454:	01 00 00 00 	nop 
    4458:	82 10 20 20 	mov  0x20, %g1	! 20 <start+0x20>
    445c:	c2 2f bf ff 	stb  %g1, [ %fp + -1 ]
    4460:	c2 07 a0 50 	ld  [ %fp + 0x50 ], %g1
    4464:	82 00 7f ff 	add  %g1, -1, %g1
    4468:	c2 27 a0 50 	st  %g1, [ %fp + 0x50 ]
    446c:	c2 07 a0 58 	ld  [ %fp + 0x58 ], %g1
    4470:	82 08 60 20 	and  %g1, 0x20, %g1
    4474:	80 a0 60 00 	cmp  %g1, 0
    4478:	02 80 00 12 	be  44c0 <number+0x1c0>
    447c:	01 00 00 00 	nop 
    4480:	c2 07 a0 4c 	ld  [ %fp + 0x4c ], %g1
    4484:	80 a0 60 10 	cmp  %g1, 0x10
    4488:	12 80 00 07 	bne  44a4 <number+0x1a4>
    448c:	01 00 00 00 	nop 
    4490:	c2 07 a0 50 	ld  [ %fp + 0x50 ], %g1
    4494:	82 00 7f fe 	add  %g1, -2, %g1
    4498:	c2 27 a0 50 	st  %g1, [ %fp + 0x50 ]
    449c:	10 80 00 09 	b  44c0 <number+0x1c0>
    44a0:	01 00 00 00 	nop 
    44a4:	c2 07 a0 4c 	ld  [ %fp + 0x4c ], %g1
    44a8:	80 a0 60 08 	cmp  %g1, 8
    44ac:	12 80 00 05 	bne  44c0 <number+0x1c0>
    44b0:	01 00 00 00 	nop 
    44b4:	c2 07 a0 50 	ld  [ %fp + 0x50 ], %g1
    44b8:	82 00 7f ff 	add  %g1, -1, %g1
    44bc:	c2 27 a0 50 	st  %g1, [ %fp + 0x50 ]
    44c0:	c0 27 bf f4 	clr  [ %fp + -12 ]
    44c4:	c2 07 a0 48 	ld  [ %fp + 0x48 ], %g1
    44c8:	80 a0 60 00 	cmp  %g1, 0
    44cc:	12 80 00 25 	bne  4560 <number+0x260>
    44d0:	01 00 00 00 	nop 
    44d4:	c2 07 bf f4 	ld  [ %fp + -12 ], %g1
    44d8:	82 07 80 01 	add  %fp, %g1, %g1
    44dc:	84 10 20 30 	mov  0x30, %g2
    44e0:	c4 28 7f b0 	stb  %g2, [ %g1 + -80 ]
    44e4:	c2 07 bf f4 	ld  [ %fp + -12 ], %g1
    44e8:	82 00 60 01 	inc  %g1
    44ec:	c2 27 bf f4 	st  %g1, [ %fp + -12 ]
    44f0:	10 80 00 20 	b  4570 <number+0x270>
    44f4:	01 00 00 00 	nop 
    44f8:	c2 07 a0 48 	ld  [ %fp + 0x48 ], %g1
    44fc:	c4 07 a0 4c 	ld  [ %fp + 0x4c ], %g2
    4500:	81 80 20 00 	mov  %g0, %y
    4504:	01 00 00 00 	nop 
    4508:	01 00 00 00 	nop 
    450c:	01 00 00 00 	nop 
    4510:	86 70 40 02 	udiv  %g1, %g2, %g3
    4514:	84 58 c0 02 	smul  %g3, %g2, %g2
    4518:	82 20 40 02 	sub  %g1, %g2, %g1
    451c:	c4 07 bf f8 	ld  [ %fp + -8 ], %g2
    4520:	82 00 80 01 	add  %g2, %g1, %g1
    4524:	c4 08 40 00 	ldub  [ %g1 ], %g2
    4528:	c2 07 bf f4 	ld  [ %fp + -12 ], %g1
    452c:	82 07 80 01 	add  %fp, %g1, %g1
    4530:	c4 28 7f b0 	stb  %g2, [ %g1 + -80 ]
    4534:	c2 07 bf f4 	ld  [ %fp + -12 ], %g1
    4538:	82 00 60 01 	inc  %g1
    453c:	c2 27 bf f4 	st  %g1, [ %fp + -12 ]
    4540:	c6 07 a0 48 	ld  [ %fp + 0x48 ], %g3
    4544:	c4 07 a0 4c 	ld  [ %fp + 0x4c ], %g2
    4548:	81 80 20 00 	mov  %g0, %y
    454c:	01 00 00 00 	nop 
    4550:	01 00 00 00 	nop 
    4554:	01 00 00 00 	nop 
    4558:	82 70 c0 02 	udiv  %g3, %g2, %g1
    455c:	c2 27 a0 48 	st  %g1, [ %fp + 0x48 ]
    4560:	c2 07 a0 48 	ld  [ %fp + 0x48 ], %g1
    4564:	80 a0 60 00 	cmp  %g1, 0
    4568:	12 bf ff e4 	bne  44f8 <number+0x1f8>
    456c:	01 00 00 00 	nop 
    4570:	c4 07 bf f4 	ld  [ %fp + -12 ], %g2
    4574:	c2 07 a0 54 	ld  [ %fp + 0x54 ], %g1
    4578:	80 a0 80 01 	cmp  %g2, %g1
    457c:	04 80 00 04 	ble  458c <number+0x28c>
    4580:	01 00 00 00 	nop 
    4584:	c2 07 bf f4 	ld  [ %fp + -12 ], %g1
    4588:	c2 27 a0 54 	st  %g1, [ %fp + 0x54 ]
    458c:	c4 07 a0 50 	ld  [ %fp + 0x50 ], %g2
    4590:	c2 07 a0 54 	ld  [ %fp + 0x54 ], %g1
    4594:	82 20 80 01 	sub  %g2, %g1, %g1
    4598:	c2 27 a0 50 	st  %g1, [ %fp + 0x50 ]
    459c:	c2 07 a0 58 	ld  [ %fp + 0x58 ], %g1
    45a0:	82 08 60 11 	and  %g1, 0x11, %g1
    45a4:	80 a0 60 00 	cmp  %g1, 0
    45a8:	12 80 00 16 	bne  4600 <number+0x300>
    45ac:	01 00 00 00 	nop 
    45b0:	10 80 00 08 	b  45d0 <number+0x2d0>
    45b4:	01 00 00 00 	nop 
    45b8:	c2 07 a0 44 	ld  [ %fp + 0x44 ], %g1
    45bc:	84 10 20 20 	mov  0x20, %g2
    45c0:	c4 28 40 00 	stb  %g2, [ %g1 ]
    45c4:	c2 07 a0 44 	ld  [ %fp + 0x44 ], %g1
    45c8:	82 00 60 01 	inc  %g1
    45cc:	c2 27 a0 44 	st  %g1, [ %fp + 0x44 ]
    45d0:	c2 07 a0 50 	ld  [ %fp + 0x50 ], %g1
    45d4:	85 38 60 1f 	sra  %g1, 0x1f, %g2
    45d8:	c2 07 a0 50 	ld  [ %fp + 0x50 ], %g1
    45dc:	82 20 80 01 	sub  %g2, %g1, %g1
    45e0:	83 30 60 1f 	srl  %g1, 0x1f, %g1
    45e4:	c4 07 a0 50 	ld  [ %fp + 0x50 ], %g2
    45e8:	84 00 bf ff 	add  %g2, -1, %g2
    45ec:	c4 27 a0 50 	st  %g2, [ %fp + 0x50 ]
    45f0:	82 08 60 ff 	and  %g1, 0xff, %g1
    45f4:	80 a0 60 00 	cmp  %g1, 0
    45f8:	12 bf ff f0 	bne  45b8 <number+0x2b8>
    45fc:	01 00 00 00 	nop 
    4600:	c2 0f bf ff 	ldub  [ %fp + -1 ], %g1
    4604:	83 28 60 18 	sll  %g1, 0x18, %g1
    4608:	83 38 60 18 	sra  %g1, 0x18, %g1
    460c:	80 a0 60 00 	cmp  %g1, 0
    4610:	02 80 00 08 	be  4630 <number+0x330>
    4614:	01 00 00 00 	nop 
    4618:	c2 07 a0 44 	ld  [ %fp + 0x44 ], %g1
    461c:	c4 0f bf ff 	ldub  [ %fp + -1 ], %g2
    4620:	c4 28 40 00 	stb  %g2, [ %g1 ]
    4624:	c2 07 a0 44 	ld  [ %fp + 0x44 ], %g1
    4628:	82 00 60 01 	inc  %g1
    462c:	c2 27 a0 44 	st  %g1, [ %fp + 0x44 ]
    4630:	c2 07 a0 58 	ld  [ %fp + 0x58 ], %g1
    4634:	82 08 60 20 	and  %g1, 0x20, %g1
    4638:	80 a0 60 00 	cmp  %g1, 0
    463c:	02 80 00 21 	be  46c0 <number+0x3c0>
    4640:	01 00 00 00 	nop 
    4644:	c2 07 a0 4c 	ld  [ %fp + 0x4c ], %g1
    4648:	80 a0 60 08 	cmp  %g1, 8
    464c:	12 80 00 0a 	bne  4674 <number+0x374>
    4650:	01 00 00 00 	nop 
    4654:	c2 07 a0 44 	ld  [ %fp + 0x44 ], %g1
    4658:	84 10 20 30 	mov  0x30, %g2
    465c:	c4 28 40 00 	stb  %g2, [ %g1 ]
    4660:	c2 07 a0 44 	ld  [ %fp + 0x44 ], %g1
    4664:	82 00 60 01 	inc  %g1
    4668:	c2 27 a0 44 	st  %g1, [ %fp + 0x44 ]
    466c:	10 80 00 15 	b  46c0 <number+0x3c0>
    4670:	01 00 00 00 	nop 
    4674:	c2 07 a0 4c 	ld  [ %fp + 0x4c ], %g1
    4678:	80 a0 60 10 	cmp  %g1, 0x10
    467c:	12 80 00 11 	bne  46c0 <number+0x3c0>
    4680:	01 00 00 00 	nop 
    4684:	c2 07 a0 44 	ld  [ %fp + 0x44 ], %g1
    4688:	84 10 20 30 	mov  0x30, %g2
    468c:	c4 28 40 00 	stb  %g2, [ %g1 ]
    4690:	c2 07 a0 44 	ld  [ %fp + 0x44 ], %g1
    4694:	82 00 60 01 	inc  %g1
    4698:	c2 27 a0 44 	st  %g1, [ %fp + 0x44 ]
    469c:	03 10 00 00 	sethi  %hi(0x40000000), %g1
    46a0:	82 10 60 00 	mov  %g1, %g1	! 40000000 <digits>
    46a4:	c2 00 40 00 	ld  [ %g1 ], %g1
    46a8:	c4 08 60 21 	ldub  [ %g1 + 0x21 ], %g2
    46ac:	c2 07 a0 44 	ld  [ %fp + 0x44 ], %g1
    46b0:	c4 28 40 00 	stb  %g2, [ %g1 ]
    46b4:	c2 07 a0 44 	ld  [ %fp + 0x44 ], %g1
    46b8:	82 00 60 01 	inc  %g1
    46bc:	c2 27 a0 44 	st  %g1, [ %fp + 0x44 ]
    46c0:	c2 07 a0 58 	ld  [ %fp + 0x58 ], %g1
    46c4:	82 08 60 10 	and  %g1, 0x10, %g1
    46c8:	80 a0 60 00 	cmp  %g1, 0
    46cc:	12 80 00 20 	bne  474c <number+0x44c>
    46d0:	01 00 00 00 	nop 
    46d4:	10 80 00 08 	b  46f4 <number+0x3f4>
    46d8:	01 00 00 00 	nop 
    46dc:	c2 07 a0 44 	ld  [ %fp + 0x44 ], %g1
    46e0:	c4 0f bf f3 	ldub  [ %fp + -13 ], %g2
    46e4:	c4 28 40 00 	stb  %g2, [ %g1 ]
    46e8:	c2 07 a0 44 	ld  [ %fp + 0x44 ], %g1
    46ec:	82 00 60 01 	inc  %g1
    46f0:	c2 27 a0 44 	st  %g1, [ %fp + 0x44 ]
    46f4:	c2 07 a0 50 	ld  [ %fp + 0x50 ], %g1
    46f8:	85 38 60 1f 	sra  %g1, 0x1f, %g2
    46fc:	c2 07 a0 50 	ld  [ %fp + 0x50 ], %g1
    4700:	82 20 80 01 	sub  %g2, %g1, %g1
    4704:	83 30 60 1f 	srl  %g1, 0x1f, %g1
    4708:	c4 07 a0 50 	ld  [ %fp + 0x50 ], %g2
    470c:	84 00 bf ff 	add  %g2, -1, %g2
    4710:	c4 27 a0 50 	st  %g2, [ %fp + 0x50 ]
    4714:	82 08 60 ff 	and  %g1, 0xff, %g1
    4718:	80 a0 60 00 	cmp  %g1, 0
    471c:	12 bf ff f0 	bne  46dc <number+0x3dc>
    4720:	01 00 00 00 	nop 
    4724:	10 80 00 0a 	b  474c <number+0x44c>
    4728:	01 00 00 00 	nop 
    472c:	c2 07 a0 44 	ld  [ %fp + 0x44 ], %g1
    4730:	84 10 20 30 	mov  0x30, %g2
    4734:	c4 28 40 00 	stb  %g2, [ %g1 ]
    4738:	c2 07 a0 44 	ld  [ %fp + 0x44 ], %g1
    473c:	82 00 60 01 	inc  %g1
    4740:	c2 27 a0 44 	st  %g1, [ %fp + 0x44 ]
    4744:	10 80 00 03 	b  4750 <number+0x450>
    4748:	01 00 00 00 	nop 
    474c:	01 00 00 00 	nop 
    4750:	82 10 20 01 	mov  1, %g1	! 1 <start+0x1>
    4754:	c6 07 a0 54 	ld  [ %fp + 0x54 ], %g3
    4758:	c4 07 bf f4 	ld  [ %fp + -12 ], %g2
    475c:	80 a0 c0 02 	cmp  %g3, %g2
    4760:	14 80 00 03 	bg  476c <number+0x46c>
    4764:	01 00 00 00 	nop 
    4768:	82 10 20 00 	clr  %g1	! 0 <start>
    476c:	c4 07 a0 54 	ld  [ %fp + 0x54 ], %g2
    4770:	84 00 bf ff 	add  %g2, -1, %g2
    4774:	c4 27 a0 54 	st  %g2, [ %fp + 0x54 ]
    4778:	82 08 60 ff 	and  %g1, 0xff, %g1
    477c:	80 a0 60 00 	cmp  %g1, 0
    4780:	12 bf ff eb 	bne  472c <number+0x42c>
    4784:	01 00 00 00 	nop 
    4788:	10 80 00 0a 	b  47b0 <number+0x4b0>
    478c:	01 00 00 00 	nop 
    4790:	c2 07 bf f4 	ld  [ %fp + -12 ], %g1
    4794:	82 07 80 01 	add  %fp, %g1, %g1
    4798:	c4 08 7f b0 	ldub  [ %g1 + -80 ], %g2
    479c:	c2 07 a0 44 	ld  [ %fp + 0x44 ], %g1
    47a0:	c4 28 40 00 	stb  %g2, [ %g1 ]
    47a4:	c2 07 a0 44 	ld  [ %fp + 0x44 ], %g1
    47a8:	82 00 60 01 	inc  %g1
    47ac:	c2 27 a0 44 	st  %g1, [ %fp + 0x44 ]
    47b0:	c2 07 bf f4 	ld  [ %fp + -12 ], %g1
    47b4:	85 38 60 1f 	sra  %g1, 0x1f, %g2
    47b8:	c2 07 bf f4 	ld  [ %fp + -12 ], %g1
    47bc:	82 20 80 01 	sub  %g2, %g1, %g1
    47c0:	83 30 60 1f 	srl  %g1, 0x1f, %g1
    47c4:	c4 07 bf f4 	ld  [ %fp + -12 ], %g2
    47c8:	84 00 bf ff 	add  %g2, -1, %g2
    47cc:	c4 27 bf f4 	st  %g2, [ %fp + -12 ]
    47d0:	82 08 60 ff 	and  %g1, 0xff, %g1
    47d4:	80 a0 60 00 	cmp  %g1, 0
    47d8:	12 bf ff ee 	bne  4790 <number+0x490>
    47dc:	01 00 00 00 	nop 
    47e0:	10 80 00 08 	b  4800 <number+0x500>
    47e4:	01 00 00 00 	nop 
    47e8:	c2 07 a0 44 	ld  [ %fp + 0x44 ], %g1
    47ec:	84 10 20 20 	mov  0x20, %g2
    47f0:	c4 28 40 00 	stb  %g2, [ %g1 ]
    47f4:	c2 07 a0 44 	ld  [ %fp + 0x44 ], %g1
    47f8:	82 00 60 01 	inc  %g1
    47fc:	c2 27 a0 44 	st  %g1, [ %fp + 0x44 ]
    4800:	c2 07 a0 50 	ld  [ %fp + 0x50 ], %g1
    4804:	85 38 60 1f 	sra  %g1, 0x1f, %g2
    4808:	c2 07 a0 50 	ld  [ %fp + 0x50 ], %g1
    480c:	82 20 80 01 	sub  %g2, %g1, %g1
    4810:	83 30 60 1f 	srl  %g1, 0x1f, %g1
    4814:	c4 07 a0 50 	ld  [ %fp + 0x50 ], %g2
    4818:	84 00 bf ff 	add  %g2, -1, %g2
    481c:	c4 27 a0 50 	st  %g2, [ %fp + 0x50 ]
    4820:	82 08 60 ff 	and  %g1, 0xff, %g1
    4824:	80 a0 60 00 	cmp  %g1, 0
    4828:	12 bf ff f0 	bne  47e8 <number+0x4e8>
    482c:	01 00 00 00 	nop 
    4830:	c2 07 a0 44 	ld  [ %fp + 0x44 ], %g1
    4834:	b0 10 00 01 	mov  %g1, %i0
    4838:	81 e8 00 00 	restore 
    483c:	81 c3 e0 08 	retl 
    4840:	01 00 00 00 	nop 

00004844 <eaddr>:
    4844:	9d e3 bf 78 	save  %sp, -136, %sp
    4848:	f0 27 a0 44 	st  %i0, [ %fp + 0x44 ]
    484c:	f2 27 a0 48 	st  %i1, [ %fp + 0x48 ]
    4850:	f4 27 a0 4c 	st  %i2, [ %fp + 0x4c ]
    4854:	f6 27 a0 50 	st  %i3, [ %fp + 0x50 ]
    4858:	f8 27 a0 54 	st  %i4, [ %fp + 0x54 ]
    485c:	03 10 00 00 	sethi  %hi(0x40000000), %g1
    4860:	82 10 60 00 	mov  %g1, %g1	! 40000000 <digits>
    4864:	c2 00 40 00 	ld  [ %g1 ], %g1
    4868:	c2 27 bf fc 	st  %g1, [ %fp + -4 ]
    486c:	c2 07 a0 54 	ld  [ %fp + 0x54 ], %g1
    4870:	82 08 60 40 	and  %g1, 0x40, %g1
    4874:	80 a0 60 00 	cmp  %g1, 0
    4878:	02 80 00 06 	be  4890 <eaddr+0x4c>
    487c:	01 00 00 00 	nop 
    4880:	03 10 00 00 	sethi  %hi(0x40000000), %g1
    4884:	82 10 60 04 	or  %g1, 4, %g1	! 40000004 <upper_digits>
    4888:	c2 00 40 00 	ld  [ %g1 ], %g1
    488c:	c2 27 bf fc 	st  %g1, [ %fp + -4 ]
    4890:	c0 27 bf f4 	clr  [ %fp + -12 ]
    4894:	c0 27 bf f8 	clr  [ %fp + -8 ]
    4898:	10 80 00 2f 	b  4954 <eaddr+0x110>
    489c:	01 00 00 00 	nop 
    48a0:	c2 07 bf f8 	ld  [ %fp + -8 ], %g1
    48a4:	80 a0 60 00 	cmp  %g1, 0
    48a8:	02 80 00 09 	be  48cc <eaddr+0x88>
    48ac:	01 00 00 00 	nop 
    48b0:	c2 07 bf f4 	ld  [ %fp + -12 ], %g1
    48b4:	82 07 80 01 	add  %fp, %g1, %g1
    48b8:	84 10 20 3a 	mov  0x3a, %g2
    48bc:	c4 28 7f d8 	stb  %g2, [ %g1 + -40 ]
    48c0:	c2 07 bf f4 	ld  [ %fp + -12 ], %g1
    48c4:	82 00 60 01 	inc  %g1
    48c8:	c2 27 bf f4 	st  %g1, [ %fp + -12 ]
    48cc:	c2 07 bf f8 	ld  [ %fp + -8 ], %g1
    48d0:	c4 07 a0 48 	ld  [ %fp + 0x48 ], %g2
    48d4:	82 00 80 01 	add  %g2, %g1, %g1
    48d8:	c2 08 40 00 	ldub  [ %g1 ], %g1
    48dc:	82 08 60 ff 	and  %g1, 0xff, %g1
    48e0:	83 30 60 04 	srl  %g1, 4, %g1
    48e4:	82 08 60 ff 	and  %g1, 0xff, %g1
    48e8:	c4 07 bf fc 	ld  [ %fp + -4 ], %g2
    48ec:	82 00 80 01 	add  %g2, %g1, %g1
    48f0:	c4 08 40 00 	ldub  [ %g1 ], %g2
    48f4:	c2 07 bf f4 	ld  [ %fp + -12 ], %g1
    48f8:	82 07 80 01 	add  %fp, %g1, %g1
    48fc:	c4 28 7f d8 	stb  %g2, [ %g1 + -40 ]
    4900:	c2 07 bf f4 	ld  [ %fp + -12 ], %g1
    4904:	82 00 60 01 	inc  %g1
    4908:	c2 27 bf f4 	st  %g1, [ %fp + -12 ]
    490c:	c2 07 bf f8 	ld  [ %fp + -8 ], %g1
    4910:	c4 07 a0 48 	ld  [ %fp + 0x48 ], %g2
    4914:	82 00 80 01 	add  %g2, %g1, %g1
    4918:	c2 08 40 00 	ldub  [ %g1 ], %g1
    491c:	82 08 60 ff 	and  %g1, 0xff, %g1
    4920:	82 08 60 0f 	and  %g1, 0xf, %g1
    4924:	c4 07 bf fc 	ld  [ %fp + -4 ], %g2
    4928:	82 00 80 01 	add  %g2, %g1, %g1
    492c:	c4 08 40 00 	ldub  [ %g1 ], %g2
    4930:	c2 07 bf f4 	ld  [ %fp + -12 ], %g1
    4934:	82 07 80 01 	add  %fp, %g1, %g1
    4938:	c4 28 7f d8 	stb  %g2, [ %g1 + -40 ]
    493c:	c2 07 bf f4 	ld  [ %fp + -12 ], %g1
    4940:	82 00 60 01 	inc  %g1
    4944:	c2 27 bf f4 	st  %g1, [ %fp + -12 ]
    4948:	c2 07 bf f8 	ld  [ %fp + -8 ], %g1
    494c:	82 00 60 01 	inc  %g1
    4950:	c2 27 bf f8 	st  %g1, [ %fp + -8 ]
    4954:	c2 07 bf f8 	ld  [ %fp + -8 ], %g1
    4958:	80 a0 60 05 	cmp  %g1, 5
    495c:	04 bf ff d1 	ble  48a0 <eaddr+0x5c>
    4960:	01 00 00 00 	nop 
    4964:	c2 07 a0 54 	ld  [ %fp + 0x54 ], %g1
    4968:	82 08 60 10 	and  %g1, 0x10, %g1
    496c:	80 a0 60 00 	cmp  %g1, 0
    4970:	12 80 00 18 	bne  49d0 <eaddr+0x18c>
    4974:	01 00 00 00 	nop 
    4978:	10 80 00 08 	b  4998 <eaddr+0x154>
    497c:	01 00 00 00 	nop 
    4980:	c2 07 a0 44 	ld  [ %fp + 0x44 ], %g1
    4984:	84 10 20 20 	mov  0x20, %g2
    4988:	c4 28 40 00 	stb  %g2, [ %g1 ]
    498c:	c2 07 a0 44 	ld  [ %fp + 0x44 ], %g1
    4990:	82 00 60 01 	inc  %g1
    4994:	c2 27 a0 44 	st  %g1, [ %fp + 0x44 ]
    4998:	82 10 20 01 	mov  1, %g1
    499c:	c6 07 a0 4c 	ld  [ %fp + 0x4c ], %g3
    49a0:	c4 07 bf f4 	ld  [ %fp + -12 ], %g2
    49a4:	80 a0 c0 02 	cmp  %g3, %g2
    49a8:	14 80 00 03 	bg  49b4 <eaddr+0x170>
    49ac:	01 00 00 00 	nop 
    49b0:	82 10 20 00 	clr  %g1	! 0 <start>
    49b4:	c4 07 a0 4c 	ld  [ %fp + 0x4c ], %g2
    49b8:	84 00 bf ff 	add  %g2, -1, %g2
    49bc:	c4 27 a0 4c 	st  %g2, [ %fp + 0x4c ]
    49c0:	82 08 60 ff 	and  %g1, 0xff, %g1
    49c4:	80 a0 60 00 	cmp  %g1, 0
    49c8:	12 bf ff ee 	bne  4980 <eaddr+0x13c>
    49cc:	01 00 00 00 	nop 
    49d0:	c0 27 bf f8 	clr  [ %fp + -8 ]
    49d4:	10 80 00 0d 	b  4a08 <eaddr+0x1c4>
    49d8:	01 00 00 00 	nop 
    49dc:	c2 07 bf f8 	ld  [ %fp + -8 ], %g1
    49e0:	82 07 80 01 	add  %fp, %g1, %g1
    49e4:	c4 08 7f d8 	ldub  [ %g1 + -40 ], %g2
    49e8:	c2 07 a0 44 	ld  [ %fp + 0x44 ], %g1
    49ec:	c4 28 40 00 	stb  %g2, [ %g1 ]
    49f0:	c2 07 a0 44 	ld  [ %fp + 0x44 ], %g1
    49f4:	82 00 60 01 	inc  %g1
    49f8:	c2 27 a0 44 	st  %g1, [ %fp + 0x44 ]
    49fc:	c2 07 bf f8 	ld  [ %fp + -8 ], %g1
    4a00:	82 00 60 01 	inc  %g1
    4a04:	c2 27 bf f8 	st  %g1, [ %fp + -8 ]
    4a08:	c4 07 bf f8 	ld  [ %fp + -8 ], %g2
    4a0c:	c2 07 bf f4 	ld  [ %fp + -12 ], %g1
    4a10:	80 a0 80 01 	cmp  %g2, %g1
    4a14:	06 bf ff f2 	bl  49dc <eaddr+0x198>
    4a18:	01 00 00 00 	nop 
    4a1c:	10 80 00 08 	b  4a3c <eaddr+0x1f8>
    4a20:	01 00 00 00 	nop 
    4a24:	c2 07 a0 44 	ld  [ %fp + 0x44 ], %g1
    4a28:	84 10 20 20 	mov  0x20, %g2
    4a2c:	c4 28 40 00 	stb  %g2, [ %g1 ]
    4a30:	c2 07 a0 44 	ld  [ %fp + 0x44 ], %g1
    4a34:	82 00 60 01 	inc  %g1
    4a38:	c2 27 a0 44 	st  %g1, [ %fp + 0x44 ]
    4a3c:	82 10 20 01 	mov  1, %g1
    4a40:	c6 07 a0 4c 	ld  [ %fp + 0x4c ], %g3
    4a44:	c4 07 bf f4 	ld  [ %fp + -12 ], %g2
    4a48:	80 a0 c0 02 	cmp  %g3, %g2
    4a4c:	14 80 00 03 	bg  4a58 <eaddr+0x214>
    4a50:	01 00 00 00 	nop 
    4a54:	82 10 20 00 	clr  %g1	! 0 <start>
    4a58:	c4 07 a0 4c 	ld  [ %fp + 0x4c ], %g2
    4a5c:	84 00 bf ff 	add  %g2, -1, %g2
    4a60:	c4 27 a0 4c 	st  %g2, [ %fp + 0x4c ]
    4a64:	82 08 60 ff 	and  %g1, 0xff, %g1
    4a68:	80 a0 60 00 	cmp  %g1, 0
    4a6c:	12 bf ff ee 	bne  4a24 <eaddr+0x1e0>
    4a70:	01 00 00 00 	nop 
    4a74:	c2 07 a0 44 	ld  [ %fp + 0x44 ], %g1
    4a78:	b0 10 00 01 	mov  %g1, %i0
    4a7c:	81 e8 00 00 	restore 
    4a80:	81 c3 e0 08 	retl 
    4a84:	01 00 00 00 	nop 

00004a88 <iaddr>:
    4a88:	9d e3 bf 78 	save  %sp, -136, %sp
    4a8c:	f0 27 a0 44 	st  %i0, [ %fp + 0x44 ]
    4a90:	f2 27 a0 48 	st  %i1, [ %fp + 0x48 ]
    4a94:	f4 27 a0 4c 	st  %i2, [ %fp + 0x4c ]
    4a98:	f6 27 a0 50 	st  %i3, [ %fp + 0x50 ]
    4a9c:	f8 27 a0 54 	st  %i4, [ %fp + 0x54 ]
    4aa0:	c0 27 bf f4 	clr  [ %fp + -12 ]
    4aa4:	c0 27 bf fc 	clr  [ %fp + -4 ]
    4aa8:	10 80 00 94 	b  4cf8 <iaddr+0x270>
    4aac:	01 00 00 00 	nop 
    4ab0:	c2 07 bf fc 	ld  [ %fp + -4 ], %g1
    4ab4:	80 a0 60 00 	cmp  %g1, 0
    4ab8:	02 80 00 09 	be  4adc <iaddr+0x54>
    4abc:	01 00 00 00 	nop 
    4ac0:	c2 07 bf f4 	ld  [ %fp + -12 ], %g1
    4ac4:	82 07 80 01 	add  %fp, %g1, %g1
    4ac8:	84 10 20 2e 	mov  0x2e, %g2
    4acc:	c4 28 7f d8 	stb  %g2, [ %g1 + -40 ]
    4ad0:	c2 07 bf f4 	ld  [ %fp + -12 ], %g1
    4ad4:	82 00 60 01 	inc  %g1
    4ad8:	c2 27 bf f4 	st  %g1, [ %fp + -12 ]
    4adc:	c2 07 bf fc 	ld  [ %fp + -4 ], %g1
    4ae0:	c4 07 a0 48 	ld  [ %fp + 0x48 ], %g2
    4ae4:	82 00 80 01 	add  %g2, %g1, %g1
    4ae8:	c2 08 40 00 	ldub  [ %g1 ], %g1
    4aec:	82 08 60 ff 	and  %g1, 0xff, %g1
    4af0:	c2 27 bf f8 	st  %g1, [ %fp + -8 ]
    4af4:	c2 07 bf f8 	ld  [ %fp + -8 ], %g1
    4af8:	80 a0 60 00 	cmp  %g1, 0
    4afc:	12 80 00 0e 	bne  4b34 <iaddr+0xac>
    4b00:	01 00 00 00 	nop 
    4b04:	03 10 00 00 	sethi  %hi(0x40000000), %g1
    4b08:	82 10 60 00 	mov  %g1, %g1	! 40000000 <digits>
    4b0c:	c2 00 40 00 	ld  [ %g1 ], %g1
    4b10:	c4 08 40 00 	ldub  [ %g1 ], %g2
    4b14:	c2 07 bf f4 	ld  [ %fp + -12 ], %g1
    4b18:	82 07 80 01 	add  %fp, %g1, %g1
    4b1c:	c4 28 7f d8 	stb  %g2, [ %g1 + -40 ]
    4b20:	c2 07 bf f4 	ld  [ %fp + -12 ], %g1
    4b24:	82 00 60 01 	inc  %g1
    4b28:	c2 27 bf f4 	st  %g1, [ %fp + -12 ]
    4b2c:	10 80 00 70 	b  4cec <iaddr+0x264>
    4b30:	01 00 00 00 	nop 
    4b34:	c2 07 bf f8 	ld  [ %fp + -8 ], %g1
    4b38:	80 a0 60 63 	cmp  %g1, 0x63
    4b3c:	04 80 00 3e 	ble  4c34 <iaddr+0x1ac>
    4b40:	01 00 00 00 	nop 
    4b44:	03 10 00 00 	sethi  %hi(0x40000000), %g1
    4b48:	82 10 60 00 	mov  %g1, %g1	! 40000000 <digits>
    4b4c:	c4 00 40 00 	ld  [ %g1 ], %g2
    4b50:	c2 07 bf f8 	ld  [ %fp + -8 ], %g1
    4b54:	87 38 60 1f 	sra  %g1, 0x1f, %g3
    4b58:	81 80 e0 00 	mov  %g3, %y
    4b5c:	01 00 00 00 	nop 
    4b60:	01 00 00 00 	nop 
    4b64:	01 00 00 00 	nop 
    4b68:	82 78 60 64 	sdiv  %g1, 0x64, %g1
    4b6c:	82 00 80 01 	add  %g2, %g1, %g1
    4b70:	c4 08 40 00 	ldub  [ %g1 ], %g2
    4b74:	c2 07 bf f4 	ld  [ %fp + -12 ], %g1
    4b78:	82 07 80 01 	add  %fp, %g1, %g1
    4b7c:	c4 28 7f d8 	stb  %g2, [ %g1 + -40 ]
    4b80:	c2 07 bf f4 	ld  [ %fp + -12 ], %g1
    4b84:	82 00 60 01 	inc  %g1
    4b88:	c2 27 bf f4 	st  %g1, [ %fp + -12 ]
    4b8c:	c2 07 bf f8 	ld  [ %fp + -8 ], %g1
    4b90:	87 38 60 1f 	sra  %g1, 0x1f, %g3
    4b94:	81 80 e0 00 	mov  %g3, %y
    4b98:	01 00 00 00 	nop 
    4b9c:	01 00 00 00 	nop 
    4ba0:	01 00 00 00 	nop 
    4ba4:	84 78 60 64 	sdiv  %g1, 0x64, %g2
    4ba8:	84 58 a0 64 	smul  %g2, 0x64, %g2
    4bac:	82 20 40 02 	sub  %g1, %g2, %g1
    4bb0:	c2 27 bf f8 	st  %g1, [ %fp + -8 ]
    4bb4:	03 10 00 00 	sethi  %hi(0x40000000), %g1
    4bb8:	82 10 60 00 	mov  %g1, %g1	! 40000000 <digits>
    4bbc:	c4 00 40 00 	ld  [ %g1 ], %g2
    4bc0:	c2 07 bf f8 	ld  [ %fp + -8 ], %g1
    4bc4:	87 38 60 1f 	sra  %g1, 0x1f, %g3
    4bc8:	81 80 e0 00 	mov  %g3, %y
    4bcc:	01 00 00 00 	nop 
    4bd0:	01 00 00 00 	nop 
    4bd4:	01 00 00 00 	nop 
    4bd8:	82 78 60 0a 	sdiv  %g1, 0xa, %g1
    4bdc:	82 00 80 01 	add  %g2, %g1, %g1
    4be0:	c4 08 40 00 	ldub  [ %g1 ], %g2
    4be4:	c2 07 bf f4 	ld  [ %fp + -12 ], %g1
    4be8:	82 07 80 01 	add  %fp, %g1, %g1
    4bec:	c4 28 7f d8 	stb  %g2, [ %g1 + -40 ]
    4bf0:	c2 07 bf f4 	ld  [ %fp + -12 ], %g1
    4bf4:	82 00 60 01 	inc  %g1
    4bf8:	c2 27 bf f4 	st  %g1, [ %fp + -12 ]
    4bfc:	c4 07 bf f8 	ld  [ %fp + -8 ], %g2
    4c00:	87 38 a0 1f 	sra  %g2, 0x1f, %g3
    4c04:	81 80 e0 00 	mov  %g3, %y
    4c08:	01 00 00 00 	nop 
    4c0c:	01 00 00 00 	nop 
    4c10:	01 00 00 00 	nop 
    4c14:	82 78 a0 0a 	sdiv  %g2, 0xa, %g1
    4c18:	82 00 40 01 	add  %g1, %g1, %g1
    4c1c:	87 28 60 02 	sll  %g1, 2, %g3
    4c20:	82 00 40 03 	add  %g1, %g3, %g1
    4c24:	82 20 80 01 	sub  %g2, %g1, %g1
    4c28:	c2 27 bf f8 	st  %g1, [ %fp + -8 ]
    4c2c:	10 80 00 24 	b  4cbc <iaddr+0x234>
    4c30:	01 00 00 00 	nop 
    4c34:	c2 07 bf f8 	ld  [ %fp + -8 ], %g1
    4c38:	80 a0 60 09 	cmp  %g1, 9
    4c3c:	04 80 00 20 	ble  4cbc <iaddr+0x234>
    4c40:	01 00 00 00 	nop 
    4c44:	03 10 00 00 	sethi  %hi(0x40000000), %g1
    4c48:	82 10 60 00 	mov  %g1, %g1	! 40000000 <digits>
    4c4c:	c4 00 40 00 	ld  [ %g1 ], %g2
    4c50:	c2 07 bf f8 	ld  [ %fp + -8 ], %g1
    4c54:	87 38 60 1f 	sra  %g1, 0x1f, %g3
    4c58:	81 80 e0 00 	mov  %g3, %y
    4c5c:	01 00 00 00 	nop 
    4c60:	01 00 00 00 	nop 
    4c64:	01 00 00 00 	nop 
    4c68:	82 78 60 0a 	sdiv  %g1, 0xa, %g1
    4c6c:	82 00 80 01 	add  %g2, %g1, %g1
    4c70:	c4 08 40 00 	ldub  [ %g1 ], %g2
    4c74:	c2 07 bf f4 	ld  [ %fp + -12 ], %g1
    4c78:	82 07 80 01 	add  %fp, %g1, %g1
    4c7c:	c4 28 7f d8 	stb  %g2, [ %g1 + -40 ]
    4c80:	c2 07 bf f4 	ld  [ %fp + -12 ], %g1
    4c84:	82 00 60 01 	inc  %g1
    4c88:	c2 27 bf f4 	st  %g1, [ %fp + -12 ]
    4c8c:	c4 07 bf f8 	ld  [ %fp + -8 ], %g2
    4c90:	87 38 a0 1f 	sra  %g2, 0x1f, %g3
    4c94:	81 80 e0 00 	mov  %g3, %y
    4c98:	01 00 00 00 	nop 
    4c9c:	01 00 00 00 	nop 
    4ca0:	01 00 00 00 	nop 
    4ca4:	82 78 a0 0a 	sdiv  %g2, 0xa, %g1
    4ca8:	82 00 40 01 	add  %g1, %g1, %g1
    4cac:	87 28 60 02 	sll  %g1, 2, %g3
    4cb0:	82 00 40 03 	add  %g1, %g3, %g1
    4cb4:	82 20 80 01 	sub  %g2, %g1, %g1
    4cb8:	c2 27 bf f8 	st  %g1, [ %fp + -8 ]
    4cbc:	03 10 00 00 	sethi  %hi(0x40000000), %g1
    4cc0:	82 10 60 00 	mov  %g1, %g1	! 40000000 <digits>
    4cc4:	c4 00 40 00 	ld  [ %g1 ], %g2
    4cc8:	c2 07 bf f8 	ld  [ %fp + -8 ], %g1
    4ccc:	82 00 80 01 	add  %g2, %g1, %g1
    4cd0:	c4 08 40 00 	ldub  [ %g1 ], %g2
    4cd4:	c2 07 bf f4 	ld  [ %fp + -12 ], %g1
    4cd8:	82 07 80 01 	add  %fp, %g1, %g1
    4cdc:	c4 28 7f d8 	stb  %g2, [ %g1 + -40 ]
    4ce0:	c2 07 bf f4 	ld  [ %fp + -12 ], %g1
    4ce4:	82 00 60 01 	inc  %g1
    4ce8:	c2 27 bf f4 	st  %g1, [ %fp + -12 ]
    4cec:	c2 07 bf fc 	ld  [ %fp + -4 ], %g1
    4cf0:	82 00 60 01 	inc  %g1
    4cf4:	c2 27 bf fc 	st  %g1, [ %fp + -4 ]
    4cf8:	c2 07 bf fc 	ld  [ %fp + -4 ], %g1
    4cfc:	80 a0 60 03 	cmp  %g1, 3
    4d00:	04 bf ff 6c 	ble  4ab0 <iaddr+0x28>
    4d04:	01 00 00 00 	nop 
    4d08:	c2 07 a0 54 	ld  [ %fp + 0x54 ], %g1
    4d0c:	82 08 60 10 	and  %g1, 0x10, %g1
    4d10:	80 a0 60 00 	cmp  %g1, 0
    4d14:	12 80 00 18 	bne  4d74 <iaddr+0x2ec>
    4d18:	01 00 00 00 	nop 
    4d1c:	10 80 00 08 	b  4d3c <iaddr+0x2b4>
    4d20:	01 00 00 00 	nop 
    4d24:	c2 07 a0 44 	ld  [ %fp + 0x44 ], %g1
    4d28:	84 10 20 20 	mov  0x20, %g2
    4d2c:	c4 28 40 00 	stb  %g2, [ %g1 ]
    4d30:	c2 07 a0 44 	ld  [ %fp + 0x44 ], %g1
    4d34:	82 00 60 01 	inc  %g1
    4d38:	c2 27 a0 44 	st  %g1, [ %fp + 0x44 ]
    4d3c:	82 10 20 01 	mov  1, %g1
    4d40:	c6 07 a0 4c 	ld  [ %fp + 0x4c ], %g3
    4d44:	c4 07 bf f4 	ld  [ %fp + -12 ], %g2
    4d48:	80 a0 c0 02 	cmp  %g3, %g2
    4d4c:	14 80 00 03 	bg  4d58 <iaddr+0x2d0>
    4d50:	01 00 00 00 	nop 
    4d54:	82 10 20 00 	clr  %g1	! 0 <start>
    4d58:	c4 07 a0 4c 	ld  [ %fp + 0x4c ], %g2
    4d5c:	84 00 bf ff 	add  %g2, -1, %g2
    4d60:	c4 27 a0 4c 	st  %g2, [ %fp + 0x4c ]
    4d64:	82 08 60 ff 	and  %g1, 0xff, %g1
    4d68:	80 a0 60 00 	cmp  %g1, 0
    4d6c:	12 bf ff ee 	bne  4d24 <iaddr+0x29c>
    4d70:	01 00 00 00 	nop 
    4d74:	c0 27 bf fc 	clr  [ %fp + -4 ]
    4d78:	10 80 00 0d 	b  4dac <iaddr+0x324>
    4d7c:	01 00 00 00 	nop 
    4d80:	c2 07 bf fc 	ld  [ %fp + -4 ], %g1
    4d84:	82 07 80 01 	add  %fp, %g1, %g1
    4d88:	c4 08 7f d8 	ldub  [ %g1 + -40 ], %g2
    4d8c:	c2 07 a0 44 	ld  [ %fp + 0x44 ], %g1
    4d90:	c4 28 40 00 	stb  %g2, [ %g1 ]
    4d94:	c2 07 a0 44 	ld  [ %fp + 0x44 ], %g1
    4d98:	82 00 60 01 	inc  %g1
    4d9c:	c2 27 a0 44 	st  %g1, [ %fp + 0x44 ]
    4da0:	c2 07 bf fc 	ld  [ %fp + -4 ], %g1
    4da4:	82 00 60 01 	inc  %g1
    4da8:	c2 27 bf fc 	st  %g1, [ %fp + -4 ]
    4dac:	c4 07 bf fc 	ld  [ %fp + -4 ], %g2
    4db0:	c2 07 bf f4 	ld  [ %fp + -12 ], %g1
    4db4:	80 a0 80 01 	cmp  %g2, %g1
    4db8:	06 bf ff f2 	bl  4d80 <iaddr+0x2f8>
    4dbc:	01 00 00 00 	nop 
    4dc0:	10 80 00 08 	b  4de0 <iaddr+0x358>
    4dc4:	01 00 00 00 	nop 
    4dc8:	c2 07 a0 44 	ld  [ %fp + 0x44 ], %g1
    4dcc:	84 10 20 20 	mov  0x20, %g2
    4dd0:	c4 28 40 00 	stb  %g2, [ %g1 ]
    4dd4:	c2 07 a0 44 	ld  [ %fp + 0x44 ], %g1
    4dd8:	82 00 60 01 	inc  %g1
    4ddc:	c2 27 a0 44 	st  %g1, [ %fp + 0x44 ]
    4de0:	82 10 20 01 	mov  1, %g1
    4de4:	c6 07 a0 4c 	ld  [ %fp + 0x4c ], %g3
    4de8:	c4 07 bf f4 	ld  [ %fp + -12 ], %g2
    4dec:	80 a0 c0 02 	cmp  %g3, %g2
    4df0:	14 80 00 03 	bg  4dfc <iaddr+0x374>
    4df4:	01 00 00 00 	nop 
    4df8:	82 10 20 00 	clr  %g1	! 0 <start>
    4dfc:	c4 07 a0 4c 	ld  [ %fp + 0x4c ], %g2
    4e00:	84 00 bf ff 	add  %g2, -1, %g2
    4e04:	c4 27 a0 4c 	st  %g2, [ %fp + 0x4c ]
    4e08:	82 08 60 ff 	and  %g1, 0xff, %g1
    4e0c:	80 a0 60 00 	cmp  %g1, 0
    4e10:	12 bf ff ee 	bne  4dc8 <iaddr+0x340>
    4e14:	01 00 00 00 	nop 
    4e18:	c2 07 a0 44 	ld  [ %fp + 0x44 ], %g1
    4e1c:	b0 10 00 01 	mov  %g1, %i0
    4e20:	81 e8 00 00 	restore 
    4e24:	81 c3 e0 08 	retl 
    4e28:	01 00 00 00 	nop 

00004e2c <ee_vsprintf>:
    4e2c:	9d e3 bf 78 	save  %sp, -136, %sp
    4e30:	f0 27 a0 44 	st  %i0, [ %fp + 0x44 ]
    4e34:	f2 27 a0 48 	st  %i1, [ %fp + 0x48 ]
    4e38:	f4 27 a0 4c 	st  %i2, [ %fp + 0x4c ]
    4e3c:	c2 07 a0 44 	ld  [ %fp + 0x44 ], %g1
    4e40:	c2 27 bf f0 	st  %g1, [ %fp + -16 ]
    4e44:	10 80 01 f5 	b  5618 <ee_vsprintf+0x7ec>
    4e48:	01 00 00 00 	nop 
    4e4c:	c2 07 a0 48 	ld  [ %fp + 0x48 ], %g1
    4e50:	c2 08 40 00 	ldub  [ %g1 ], %g1
    4e54:	83 28 60 18 	sll  %g1, 0x18, %g1
    4e58:	83 38 60 18 	sra  %g1, 0x18, %g1
    4e5c:	80 a0 60 25 	cmp  %g1, 0x25
    4e60:	02 80 00 0b 	be  4e8c <ee_vsprintf+0x60>
    4e64:	01 00 00 00 	nop 
    4e68:	c2 07 a0 48 	ld  [ %fp + 0x48 ], %g1
    4e6c:	c4 08 40 00 	ldub  [ %g1 ], %g2
    4e70:	c2 07 bf f0 	ld  [ %fp + -16 ], %g1
    4e74:	c4 28 40 00 	stb  %g2, [ %g1 ]
    4e78:	c2 07 bf f0 	ld  [ %fp + -16 ], %g1
    4e7c:	82 00 60 01 	inc  %g1
    4e80:	c2 27 bf f0 	st  %g1, [ %fp + -16 ]
    4e84:	10 80 01 e2 	b  560c <ee_vsprintf+0x7e0>
    4e88:	01 00 00 00 	nop 
    4e8c:	c0 27 bf e8 	clr  [ %fp + -24 ]
    4e90:	c2 07 a0 48 	ld  [ %fp + 0x48 ], %g1
    4e94:	82 00 60 01 	inc  %g1
    4e98:	c2 27 a0 48 	st  %g1, [ %fp + 0x48 ]
    4e9c:	c2 07 a0 48 	ld  [ %fp + 0x48 ], %g1
    4ea0:	c2 08 40 00 	ldub  [ %g1 ], %g1
    4ea4:	83 28 60 18 	sll  %g1, 0x18, %g1
    4ea8:	83 38 60 18 	sra  %g1, 0x18, %g1
    4eac:	82 00 7f e0 	add  %g1, -32, %g1
    4eb0:	80 a0 60 10 	cmp  %g1, 0x10
    4eb4:	18 80 00 21 	bgu  4f38 <ee_vsprintf+0x10c>
    4eb8:	01 00 00 00 	nop 
    4ebc:	85 28 60 02 	sll  %g1, 2, %g2
    4ec0:	03 00 00 10 	sethi  %hi(0x4000), %g1
    4ec4:	82 10 61 1c 	or  %g1, 0x11c, %g1	! 411c <end+0xe4>
    4ec8:	c2 00 80 01 	ld  [ %g2 + %g1 ], %g1
    4ecc:	81 c0 40 00 	jmp  %g1
    4ed0:	01 00 00 00 	nop 
    4ed4:	c2 07 bf e8 	ld  [ %fp + -24 ], %g1
    4ed8:	82 10 60 10 	or  %g1, 0x10, %g1
    4edc:	c2 27 bf e8 	st  %g1, [ %fp + -24 ]
    4ee0:	10 bf ff ec 	b  4e90 <ee_vsprintf+0x64>
    4ee4:	01 00 00 00 	nop 
    4ee8:	c2 07 bf e8 	ld  [ %fp + -24 ], %g1
    4eec:	82 10 60 04 	or  %g1, 4, %g1
    4ef0:	c2 27 bf e8 	st  %g1, [ %fp + -24 ]
    4ef4:	10 bf ff e7 	b  4e90 <ee_vsprintf+0x64>
    4ef8:	01 00 00 00 	nop 
    4efc:	c2 07 bf e8 	ld  [ %fp + -24 ], %g1
    4f00:	82 10 60 08 	or  %g1, 8, %g1
    4f04:	c2 27 bf e8 	st  %g1, [ %fp + -24 ]
    4f08:	10 bf ff e2 	b  4e90 <ee_vsprintf+0x64>
    4f0c:	01 00 00 00 	nop 
    4f10:	c2 07 bf e8 	ld  [ %fp + -24 ], %g1
    4f14:	82 10 60 20 	or  %g1, 0x20, %g1
    4f18:	c2 27 bf e8 	st  %g1, [ %fp + -24 ]
    4f1c:	10 bf ff dd 	b  4e90 <ee_vsprintf+0x64>
    4f20:	01 00 00 00 	nop 
    4f24:	c2 07 bf e8 	ld  [ %fp + -24 ], %g1
    4f28:	82 10 60 01 	or  %g1, 1, %g1
    4f2c:	c2 27 bf e8 	st  %g1, [ %fp + -24 ]
    4f30:	10 bf ff d8 	b  4e90 <ee_vsprintf+0x64>
    4f34:	01 00 00 00 	nop 
    4f38:	82 10 3f ff 	mov  -1, %g1	! ffffffff <CVTBUF+0xbffffff7>
    4f3c:	c2 27 bf e4 	st  %g1, [ %fp + -28 ]
    4f40:	c2 07 a0 48 	ld  [ %fp + 0x48 ], %g1
    4f44:	c2 08 40 00 	ldub  [ %g1 ], %g1
    4f48:	83 28 60 18 	sll  %g1, 0x18, %g1
    4f4c:	83 38 60 18 	sra  %g1, 0x18, %g1
    4f50:	80 a0 60 2f 	cmp  %g1, 0x2f
    4f54:	04 80 00 10 	ble  4f94 <ee_vsprintf+0x168>
    4f58:	01 00 00 00 	nop 
    4f5c:	c2 07 a0 48 	ld  [ %fp + 0x48 ], %g1
    4f60:	c2 08 40 00 	ldub  [ %g1 ], %g1
    4f64:	83 28 60 18 	sll  %g1, 0x18, %g1
    4f68:	83 38 60 18 	sra  %g1, 0x18, %g1
    4f6c:	80 a0 60 39 	cmp  %g1, 0x39
    4f70:	14 80 00 09 	bg  4f94 <ee_vsprintf+0x168>
    4f74:	01 00 00 00 	nop 
    4f78:	82 07 a0 48 	add  %fp, 0x48, %g1
    4f7c:	90 10 00 01 	mov  %g1, %o0
    4f80:	7f ff fc b7 	call  425c <skip_atoi>
    4f84:	01 00 00 00 	nop 
    4f88:	d0 27 bf e4 	st  %o0, [ %fp + -28 ]
    4f8c:	10 80 00 1c 	b  4ffc <ee_vsprintf+0x1d0>
    4f90:	01 00 00 00 	nop 
    4f94:	c2 07 a0 48 	ld  [ %fp + 0x48 ], %g1
    4f98:	c2 08 40 00 	ldub  [ %g1 ], %g1
    4f9c:	83 28 60 18 	sll  %g1, 0x18, %g1
    4fa0:	83 38 60 18 	sra  %g1, 0x18, %g1
    4fa4:	80 a0 60 2a 	cmp  %g1, 0x2a
    4fa8:	12 80 00 15 	bne  4ffc <ee_vsprintf+0x1d0>
    4fac:	01 00 00 00 	nop 
    4fb0:	c2 07 a0 48 	ld  [ %fp + 0x48 ], %g1
    4fb4:	82 00 60 01 	inc  %g1
    4fb8:	c2 27 a0 48 	st  %g1, [ %fp + 0x48 ]
    4fbc:	c2 07 a0 4c 	ld  [ %fp + 0x4c ], %g1
    4fc0:	c2 00 40 00 	ld  [ %g1 ], %g1
    4fc4:	c2 27 bf e4 	st  %g1, [ %fp + -28 ]
    4fc8:	c2 07 a0 4c 	ld  [ %fp + 0x4c ], %g1
    4fcc:	82 00 60 04 	add  %g1, 4, %g1
    4fd0:	c2 27 a0 4c 	st  %g1, [ %fp + 0x4c ]
    4fd4:	c2 07 bf e4 	ld  [ %fp + -28 ], %g1
    4fd8:	80 a0 60 00 	cmp  %g1, 0
    4fdc:	16 80 00 08 	bge  4ffc <ee_vsprintf+0x1d0>
    4fe0:	01 00 00 00 	nop 
    4fe4:	c2 07 bf e4 	ld  [ %fp + -28 ], %g1
    4fe8:	82 20 00 01 	neg  %g1
    4fec:	c2 27 bf e4 	st  %g1, [ %fp + -28 ]
    4ff0:	c2 07 bf e8 	ld  [ %fp + -24 ], %g1
    4ff4:	82 10 60 10 	or  %g1, 0x10, %g1
    4ff8:	c2 27 bf e8 	st  %g1, [ %fp + -24 ]
    4ffc:	82 10 3f ff 	mov  -1, %g1
    5000:	c2 27 bf e0 	st  %g1, [ %fp + -32 ]
    5004:	c2 07 a0 48 	ld  [ %fp + 0x48 ], %g1
    5008:	c2 08 40 00 	ldub  [ %g1 ], %g1
    500c:	83 28 60 18 	sll  %g1, 0x18, %g1
    5010:	83 38 60 18 	sra  %g1, 0x18, %g1
    5014:	80 a0 60 2e 	cmp  %g1, 0x2e
    5018:	12 80 00 2f 	bne  50d4 <ee_vsprintf+0x2a8>
    501c:	01 00 00 00 	nop 
    5020:	c2 07 a0 48 	ld  [ %fp + 0x48 ], %g1
    5024:	82 00 60 01 	inc  %g1
    5028:	c2 27 a0 48 	st  %g1, [ %fp + 0x48 ]
    502c:	c2 07 a0 48 	ld  [ %fp + 0x48 ], %g1
    5030:	c2 08 40 00 	ldub  [ %g1 ], %g1
    5034:	83 28 60 18 	sll  %g1, 0x18, %g1
    5038:	83 38 60 18 	sra  %g1, 0x18, %g1
    503c:	80 a0 60 2f 	cmp  %g1, 0x2f
    5040:	04 80 00 10 	ble  5080 <ee_vsprintf+0x254>
    5044:	01 00 00 00 	nop 
    5048:	c2 07 a0 48 	ld  [ %fp + 0x48 ], %g1
    504c:	c2 08 40 00 	ldub  [ %g1 ], %g1
    5050:	83 28 60 18 	sll  %g1, 0x18, %g1
    5054:	83 38 60 18 	sra  %g1, 0x18, %g1
    5058:	80 a0 60 39 	cmp  %g1, 0x39
    505c:	14 80 00 09 	bg  5080 <ee_vsprintf+0x254>
    5060:	01 00 00 00 	nop 
    5064:	82 07 a0 48 	add  %fp, 0x48, %g1
    5068:	90 10 00 01 	mov  %g1, %o0
    506c:	7f ff fc 7c 	call  425c <skip_atoi>
    5070:	01 00 00 00 	nop 
    5074:	d0 27 bf e0 	st  %o0, [ %fp + -32 ]
    5078:	10 80 00 12 	b  50c0 <ee_vsprintf+0x294>
    507c:	01 00 00 00 	nop 
    5080:	c2 07 a0 48 	ld  [ %fp + 0x48 ], %g1
    5084:	c2 08 40 00 	ldub  [ %g1 ], %g1
    5088:	83 28 60 18 	sll  %g1, 0x18, %g1
    508c:	83 38 60 18 	sra  %g1, 0x18, %g1
    5090:	80 a0 60 2a 	cmp  %g1, 0x2a
    5094:	12 80 00 0b 	bne  50c0 <ee_vsprintf+0x294>
    5098:	01 00 00 00 	nop 
    509c:	c2 07 a0 48 	ld  [ %fp + 0x48 ], %g1
    50a0:	82 00 60 01 	inc  %g1
    50a4:	c2 27 a0 48 	st  %g1, [ %fp + 0x48 ]
    50a8:	c2 07 a0 4c 	ld  [ %fp + 0x4c ], %g1
    50ac:	c2 00 40 00 	ld  [ %g1 ], %g1
    50b0:	c2 27 bf e0 	st  %g1, [ %fp + -32 ]
    50b4:	c2 07 a0 4c 	ld  [ %fp + 0x4c ], %g1
    50b8:	82 00 60 04 	add  %g1, 4, %g1
    50bc:	c2 27 a0 4c 	st  %g1, [ %fp + 0x4c ]
    50c0:	c2 07 bf e0 	ld  [ %fp + -32 ], %g1
    50c4:	80 a0 60 00 	cmp  %g1, 0
    50c8:	16 80 00 03 	bge  50d4 <ee_vsprintf+0x2a8>
    50cc:	01 00 00 00 	nop 
    50d0:	c0 27 bf e0 	clr  [ %fp + -32 ]
    50d4:	82 10 3f ff 	mov  -1, %g1
    50d8:	c2 27 bf dc 	st  %g1, [ %fp + -36 ]
    50dc:	c2 07 a0 48 	ld  [ %fp + 0x48 ], %g1
    50e0:	c2 08 40 00 	ldub  [ %g1 ], %g1
    50e4:	83 28 60 18 	sll  %g1, 0x18, %g1
    50e8:	83 38 60 18 	sra  %g1, 0x18, %g1
    50ec:	80 a0 60 6c 	cmp  %g1, 0x6c
    50f0:	02 80 00 09 	be  5114 <ee_vsprintf+0x2e8>
    50f4:	01 00 00 00 	nop 
    50f8:	c2 07 a0 48 	ld  [ %fp + 0x48 ], %g1
    50fc:	c2 08 40 00 	ldub  [ %g1 ], %g1
    5100:	83 28 60 18 	sll  %g1, 0x18, %g1
    5104:	83 38 60 18 	sra  %g1, 0x18, %g1
    5108:	80 a0 60 4c 	cmp  %g1, 0x4c
    510c:	12 80 00 0a 	bne  5134 <ee_vsprintf+0x308>
    5110:	01 00 00 00 	nop 
    5114:	c2 07 a0 48 	ld  [ %fp + 0x48 ], %g1
    5118:	c2 08 40 00 	ldub  [ %g1 ], %g1
    511c:	83 28 60 18 	sll  %g1, 0x18, %g1
    5120:	83 38 60 18 	sra  %g1, 0x18, %g1
    5124:	c2 27 bf dc 	st  %g1, [ %fp + -36 ]
    5128:	c2 07 a0 48 	ld  [ %fp + 0x48 ], %g1
    512c:	82 00 60 01 	inc  %g1
    5130:	c2 27 a0 48 	st  %g1, [ %fp + 0x48 ]
    5134:	82 10 20 0a 	mov  0xa, %g1
    5138:	c2 27 bf f4 	st  %g1, [ %fp + -12 ]
    513c:	c2 07 a0 48 	ld  [ %fp + 0x48 ], %g1
    5140:	c2 08 40 00 	ldub  [ %g1 ], %g1
    5144:	83 28 60 18 	sll  %g1, 0x18, %g1
    5148:	83 38 60 18 	sra  %g1, 0x18, %g1
    514c:	82 00 7f bf 	add  %g1, -65, %g1
    5150:	80 a0 60 37 	cmp  %g1, 0x37
    5154:	18 80 00 e2 	bgu  54dc <ee_vsprintf+0x6b0>
    5158:	01 00 00 00 	nop 
    515c:	85 28 60 02 	sll  %g1, 2, %g2
    5160:	03 00 00 10 	sethi  %hi(0x4000), %g1
    5164:	82 10 60 3c 	or  %g1, 0x3c, %g1	! 403c <end+0x4>
    5168:	c2 00 80 01 	ld  [ %g2 + %g1 ], %g1
    516c:	81 c0 40 00 	jmp  %g1
    5170:	01 00 00 00 	nop 
    5174:	c2 07 bf e8 	ld  [ %fp + -24 ], %g1
    5178:	82 08 60 10 	and  %g1, 0x10, %g1
    517c:	80 a0 60 00 	cmp  %g1, 0
    5180:	12 80 00 11 	bne  51c4 <ee_vsprintf+0x398>
    5184:	01 00 00 00 	nop 
    5188:	10 80 00 08 	b  51a8 <ee_vsprintf+0x37c>
    518c:	01 00 00 00 	nop 
    5190:	c2 07 bf f0 	ld  [ %fp + -16 ], %g1
    5194:	84 10 20 20 	mov  0x20, %g2
    5198:	c4 28 40 00 	stb  %g2, [ %g1 ]
    519c:	c2 07 bf f0 	ld  [ %fp + -16 ], %g1
    51a0:	82 00 60 01 	inc  %g1
    51a4:	c2 27 bf f0 	st  %g1, [ %fp + -16 ]
    51a8:	c2 07 bf e4 	ld  [ %fp + -28 ], %g1
    51ac:	82 00 7f ff 	add  %g1, -1, %g1
    51b0:	c2 27 bf e4 	st  %g1, [ %fp + -28 ]
    51b4:	c2 07 bf e4 	ld  [ %fp + -28 ], %g1
    51b8:	80 a0 60 00 	cmp  %g1, 0
    51bc:	14 bf ff f5 	bg  5190 <ee_vsprintf+0x364>
    51c0:	01 00 00 00 	nop 
    51c4:	c2 07 a0 4c 	ld  [ %fp + 0x4c ], %g1
    51c8:	c2 00 40 00 	ld  [ %g1 ], %g1
    51cc:	84 10 00 01 	mov  %g1, %g2
    51d0:	c2 07 bf f0 	ld  [ %fp + -16 ], %g1
    51d4:	c4 28 40 00 	stb  %g2, [ %g1 ]
    51d8:	c2 07 bf f0 	ld  [ %fp + -16 ], %g1
    51dc:	82 00 60 01 	inc  %g1
    51e0:	c2 27 bf f0 	st  %g1, [ %fp + -16 ]
    51e4:	c2 07 a0 4c 	ld  [ %fp + 0x4c ], %g1
    51e8:	82 00 60 04 	add  %g1, 4, %g1
    51ec:	c2 27 a0 4c 	st  %g1, [ %fp + 0x4c ]
    51f0:	10 80 00 08 	b  5210 <ee_vsprintf+0x3e4>
    51f4:	01 00 00 00 	nop 
    51f8:	c2 07 bf f0 	ld  [ %fp + -16 ], %g1
    51fc:	84 10 20 20 	mov  0x20, %g2
    5200:	c4 28 40 00 	stb  %g2, [ %g1 ]
    5204:	c2 07 bf f0 	ld  [ %fp + -16 ], %g1
    5208:	82 00 60 01 	inc  %g1
    520c:	c2 27 bf f0 	st  %g1, [ %fp + -16 ]
    5210:	c2 07 bf e4 	ld  [ %fp + -28 ], %g1
    5214:	82 00 7f ff 	add  %g1, -1, %g1
    5218:	c2 27 bf e4 	st  %g1, [ %fp + -28 ]
    521c:	c2 07 bf e4 	ld  [ %fp + -28 ], %g1
    5220:	80 a0 60 00 	cmp  %g1, 0
    5224:	14 bf ff f5 	bg  51f8 <ee_vsprintf+0x3cc>
    5228:	01 00 00 00 	nop 
    522c:	10 80 00 f8 	b  560c <ee_vsprintf+0x7e0>
    5230:	01 00 00 00 	nop 
    5234:	c2 07 a0 4c 	ld  [ %fp + 0x4c ], %g1
    5238:	c2 00 40 00 	ld  [ %g1 ], %g1
    523c:	c2 27 bf ec 	st  %g1, [ %fp + -20 ]
    5240:	c2 07 a0 4c 	ld  [ %fp + 0x4c ], %g1
    5244:	82 00 60 04 	add  %g1, 4, %g1
    5248:	c2 27 a0 4c 	st  %g1, [ %fp + 0x4c ]
    524c:	c2 07 bf ec 	ld  [ %fp + -20 ], %g1
    5250:	80 a0 60 00 	cmp  %g1, 0
    5254:	12 80 00 05 	bne  5268 <ee_vsprintf+0x43c>
    5258:	01 00 00 00 	nop 
    525c:	03 10 00 00 	sethi  %hi(0x40000000), %g1
    5260:	82 10 60 a8 	or  %g1, 0xa8, %g1	! 400000a8 <CVTBUF+0xa0>
    5264:	c2 27 bf ec 	st  %g1, [ %fp + -20 ]
    5268:	c2 07 bf e0 	ld  [ %fp + -32 ], %g1
    526c:	d0 07 bf ec 	ld  [ %fp + -20 ], %o0
    5270:	92 10 00 01 	mov  %g1, %o1
    5274:	7f ff fb d7 	call  41d0 <strnlen>
    5278:	01 00 00 00 	nop 
    527c:	82 10 00 08 	mov  %o0, %g1
    5280:	c2 27 bf d8 	st  %g1, [ %fp + -40 ]
    5284:	c2 07 bf e8 	ld  [ %fp + -24 ], %g1
    5288:	82 08 60 10 	and  %g1, 0x10, %g1
    528c:	80 a0 60 00 	cmp  %g1, 0
    5290:	12 80 00 18 	bne  52f0 <ee_vsprintf+0x4c4>
    5294:	01 00 00 00 	nop 
    5298:	10 80 00 08 	b  52b8 <ee_vsprintf+0x48c>
    529c:	01 00 00 00 	nop 
    52a0:	c2 07 bf f0 	ld  [ %fp + -16 ], %g1
    52a4:	84 10 20 20 	mov  0x20, %g2
    52a8:	c4 28 40 00 	stb  %g2, [ %g1 ]
    52ac:	c2 07 bf f0 	ld  [ %fp + -16 ], %g1
    52b0:	82 00 60 01 	inc  %g1
    52b4:	c2 27 bf f0 	st  %g1, [ %fp + -16 ]
    52b8:	82 10 20 01 	mov  1, %g1
    52bc:	c6 07 bf e4 	ld  [ %fp + -28 ], %g3
    52c0:	c4 07 bf d8 	ld  [ %fp + -40 ], %g2
    52c4:	80 a0 c0 02 	cmp  %g3, %g2
    52c8:	14 80 00 03 	bg  52d4 <ee_vsprintf+0x4a8>
    52cc:	01 00 00 00 	nop 
    52d0:	82 10 20 00 	clr  %g1	! 0 <start>
    52d4:	c4 07 bf e4 	ld  [ %fp + -28 ], %g2
    52d8:	84 00 bf ff 	add  %g2, -1, %g2
    52dc:	c4 27 bf e4 	st  %g2, [ %fp + -28 ]
    52e0:	82 08 60 ff 	and  %g1, 0xff, %g1
    52e4:	80 a0 60 00 	cmp  %g1, 0
    52e8:	12 bf ff ee 	bne  52a0 <ee_vsprintf+0x474>
    52ec:	01 00 00 00 	nop 
    52f0:	c0 27 bf f8 	clr  [ %fp + -8 ]
    52f4:	10 80 00 0f 	b  5330 <ee_vsprintf+0x504>
    52f8:	01 00 00 00 	nop 
    52fc:	c2 07 bf ec 	ld  [ %fp + -20 ], %g1
    5300:	c4 08 40 00 	ldub  [ %g1 ], %g2
    5304:	c2 07 bf f0 	ld  [ %fp + -16 ], %g1
    5308:	c4 28 40 00 	stb  %g2, [ %g1 ]
    530c:	c2 07 bf f0 	ld  [ %fp + -16 ], %g1
    5310:	82 00 60 01 	inc  %g1
    5314:	c2 27 bf f0 	st  %g1, [ %fp + -16 ]
    5318:	c2 07 bf ec 	ld  [ %fp + -20 ], %g1
    531c:	82 00 60 01 	inc  %g1
    5320:	c2 27 bf ec 	st  %g1, [ %fp + -20 ]
    5324:	c2 07 bf f8 	ld  [ %fp + -8 ], %g1
    5328:	82 00 60 01 	inc  %g1
    532c:	c2 27 bf f8 	st  %g1, [ %fp + -8 ]
    5330:	c4 07 bf f8 	ld  [ %fp + -8 ], %g2
    5334:	c2 07 bf d8 	ld  [ %fp + -40 ], %g1
    5338:	80 a0 80 01 	cmp  %g2, %g1
    533c:	06 bf ff f0 	bl  52fc <ee_vsprintf+0x4d0>
    5340:	01 00 00 00 	nop 
    5344:	10 80 00 08 	b  5364 <ee_vsprintf+0x538>
    5348:	01 00 00 00 	nop 
    534c:	c2 07 bf f0 	ld  [ %fp + -16 ], %g1
    5350:	84 10 20 20 	mov  0x20, %g2
    5354:	c4 28 40 00 	stb  %g2, [ %g1 ]
    5358:	c2 07 bf f0 	ld  [ %fp + -16 ], %g1
    535c:	82 00 60 01 	inc  %g1
    5360:	c2 27 bf f0 	st  %g1, [ %fp + -16 ]
    5364:	82 10 20 01 	mov  1, %g1
    5368:	c6 07 bf e4 	ld  [ %fp + -28 ], %g3
    536c:	c4 07 bf d8 	ld  [ %fp + -40 ], %g2
    5370:	80 a0 c0 02 	cmp  %g3, %g2
    5374:	14 80 00 03 	bg  5380 <ee_vsprintf+0x554>
    5378:	01 00 00 00 	nop 
    537c:	82 10 20 00 	clr  %g1	! 0 <start>
    5380:	c4 07 bf e4 	ld  [ %fp + -28 ], %g2
    5384:	84 00 bf ff 	add  %g2, -1, %g2
    5388:	c4 27 bf e4 	st  %g2, [ %fp + -28 ]
    538c:	82 08 60 ff 	and  %g1, 0xff, %g1
    5390:	80 a0 60 00 	cmp  %g1, 0
    5394:	12 bf ff ee 	bne  534c <ee_vsprintf+0x520>
    5398:	01 00 00 00 	nop 
    539c:	10 80 00 9c 	b  560c <ee_vsprintf+0x7e0>
    53a0:	01 00 00 00 	nop 
    53a4:	c2 07 bf e4 	ld  [ %fp + -28 ], %g1
    53a8:	80 a0 7f ff 	cmp  %g1, -1
    53ac:	12 80 00 07 	bne  53c8 <ee_vsprintf+0x59c>
    53b0:	01 00 00 00 	nop 
    53b4:	82 10 20 08 	mov  8, %g1	! 8 <start+0x8>
    53b8:	c2 27 bf e4 	st  %g1, [ %fp + -28 ]
    53bc:	c2 07 bf e8 	ld  [ %fp + -24 ], %g1
    53c0:	82 10 60 01 	or  %g1, 1, %g1
    53c4:	c2 27 bf e8 	st  %g1, [ %fp + -24 ]
    53c8:	c2 07 a0 4c 	ld  [ %fp + 0x4c ], %g1
    53cc:	c2 00 40 00 	ld  [ %g1 ], %g1
    53d0:	c4 07 a0 4c 	ld  [ %fp + 0x4c ], %g2
    53d4:	84 00 a0 04 	add  %g2, 4, %g2
    53d8:	c4 27 a0 4c 	st  %g2, [ %fp + 0x4c ]
    53dc:	d0 07 bf f0 	ld  [ %fp + -16 ], %o0
    53e0:	92 10 00 01 	mov  %g1, %o1
    53e4:	94 10 20 10 	mov  0x10, %o2
    53e8:	d6 07 bf e4 	ld  [ %fp + -28 ], %o3
    53ec:	d8 07 bf e0 	ld  [ %fp + -32 ], %o4
    53f0:	da 07 bf e8 	ld  [ %fp + -24 ], %o5
    53f4:	7f ff fb c3 	call  4300 <number>
    53f8:	01 00 00 00 	nop 
    53fc:	d0 27 bf f0 	st  %o0, [ %fp + -16 ]
    5400:	10 80 00 83 	b  560c <ee_vsprintf+0x7e0>
    5404:	01 00 00 00 	nop 
    5408:	c2 07 bf e8 	ld  [ %fp + -24 ], %g1
    540c:	82 10 60 40 	or  %g1, 0x40, %g1
    5410:	c2 27 bf e8 	st  %g1, [ %fp + -24 ]
    5414:	c2 07 bf dc 	ld  [ %fp + -36 ], %g1
    5418:	80 a0 60 6c 	cmp  %g1, 0x6c
    541c:	12 80 00 11 	bne  5460 <ee_vsprintf+0x634>
    5420:	01 00 00 00 	nop 
    5424:	c2 07 a0 4c 	ld  [ %fp + 0x4c ], %g1
    5428:	c2 00 40 00 	ld  [ %g1 ], %g1
    542c:	c4 07 a0 4c 	ld  [ %fp + 0x4c ], %g2
    5430:	84 00 a0 04 	add  %g2, 4, %g2
    5434:	c4 27 a0 4c 	st  %g2, [ %fp + 0x4c ]
    5438:	d0 07 bf f0 	ld  [ %fp + -16 ], %o0
    543c:	92 10 00 01 	mov  %g1, %o1
    5440:	d4 07 bf e4 	ld  [ %fp + -28 ], %o2
    5444:	d6 07 bf e0 	ld  [ %fp + -32 ], %o3
    5448:	d8 07 bf e8 	ld  [ %fp + -24 ], %o4
    544c:	7f ff fc fe 	call  4844 <eaddr>
    5450:	01 00 00 00 	nop 
    5454:	d0 27 bf f0 	st  %o0, [ %fp + -16 ]
    5458:	10 80 00 6d 	b  560c <ee_vsprintf+0x7e0>
    545c:	01 00 00 00 	nop 
    5460:	c2 07 a0 4c 	ld  [ %fp + 0x4c ], %g1
    5464:	c2 00 40 00 	ld  [ %g1 ], %g1
    5468:	c4 07 a0 4c 	ld  [ %fp + 0x4c ], %g2
    546c:	84 00 a0 04 	add  %g2, 4, %g2
    5470:	c4 27 a0 4c 	st  %g2, [ %fp + 0x4c ]
    5474:	d0 07 bf f0 	ld  [ %fp + -16 ], %o0
    5478:	92 10 00 01 	mov  %g1, %o1
    547c:	d4 07 bf e4 	ld  [ %fp + -28 ], %o2
    5480:	d6 07 bf e0 	ld  [ %fp + -32 ], %o3
    5484:	d8 07 bf e8 	ld  [ %fp + -24 ], %o4
    5488:	7f ff fd 80 	call  4a88 <iaddr>
    548c:	01 00 00 00 	nop 
    5490:	d0 27 bf f0 	st  %o0, [ %fp + -16 ]
    5494:	10 80 00 5e 	b  560c <ee_vsprintf+0x7e0>
    5498:	01 00 00 00 	nop 
    549c:	82 10 20 08 	mov  8, %g1	! 8 <start+0x8>
    54a0:	c2 27 bf f4 	st  %g1, [ %fp + -12 ]
    54a4:	10 80 00 31 	b  5568 <ee_vsprintf+0x73c>
    54a8:	01 00 00 00 	nop 
    54ac:	c2 07 bf e8 	ld  [ %fp + -24 ], %g1
    54b0:	82 10 60 40 	or  %g1, 0x40, %g1
    54b4:	c2 27 bf e8 	st  %g1, [ %fp + -24 ]
    54b8:	82 10 20 10 	mov  0x10, %g1
    54bc:	c2 27 bf f4 	st  %g1, [ %fp + -12 ]
    54c0:	10 80 00 2a 	b  5568 <ee_vsprintf+0x73c>
    54c4:	01 00 00 00 	nop 
    54c8:	c2 07 bf e8 	ld  [ %fp + -24 ], %g1
    54cc:	82 10 60 02 	or  %g1, 2, %g1
    54d0:	c2 27 bf e8 	st  %g1, [ %fp + -24 ]
    54d4:	10 80 00 24 	b  5564 <ee_vsprintf+0x738>
    54d8:	01 00 00 00 	nop 
    54dc:	c2 07 a0 48 	ld  [ %fp + 0x48 ], %g1
    54e0:	c2 08 40 00 	ldub  [ %g1 ], %g1
    54e4:	83 28 60 18 	sll  %g1, 0x18, %g1
    54e8:	83 38 60 18 	sra  %g1, 0x18, %g1
    54ec:	80 a0 60 25 	cmp  %g1, 0x25
    54f0:	02 80 00 08 	be  5510 <ee_vsprintf+0x6e4>
    54f4:	01 00 00 00 	nop 
    54f8:	c2 07 bf f0 	ld  [ %fp + -16 ], %g1
    54fc:	84 10 20 25 	mov  0x25, %g2
    5500:	c4 28 40 00 	stb  %g2, [ %g1 ]
    5504:	c2 07 bf f0 	ld  [ %fp + -16 ], %g1
    5508:	82 00 60 01 	inc  %g1
    550c:	c2 27 bf f0 	st  %g1, [ %fp + -16 ]
    5510:	c2 07 a0 48 	ld  [ %fp + 0x48 ], %g1
    5514:	c2 08 40 00 	ldub  [ %g1 ], %g1
    5518:	83 28 60 18 	sll  %g1, 0x18, %g1
    551c:	83 38 60 18 	sra  %g1, 0x18, %g1
    5520:	80 a0 60 00 	cmp  %g1, 0
    5524:	02 80 00 0b 	be  5550 <ee_vsprintf+0x724>
    5528:	01 00 00 00 	nop 
    552c:	c2 07 a0 48 	ld  [ %fp + 0x48 ], %g1
    5530:	c4 08 40 00 	ldub  [ %g1 ], %g2
    5534:	c2 07 bf f0 	ld  [ %fp + -16 ], %g1
    5538:	c4 28 40 00 	stb  %g2, [ %g1 ]
    553c:	c2 07 bf f0 	ld  [ %fp + -16 ], %g1
    5540:	82 00 60 01 	inc  %g1
    5544:	c2 27 bf f0 	st  %g1, [ %fp + -16 ]
    5548:	10 80 00 31 	b  560c <ee_vsprintf+0x7e0>
    554c:	01 00 00 00 	nop 
    5550:	c2 07 a0 48 	ld  [ %fp + 0x48 ], %g1
    5554:	82 00 7f ff 	add  %g1, -1, %g1
    5558:	c2 27 a0 48 	st  %g1, [ %fp + 0x48 ]
    555c:	10 80 00 2c 	b  560c <ee_vsprintf+0x7e0>
    5560:	01 00 00 00 	nop 
    5564:	01 00 00 00 	nop 
    5568:	c2 07 bf dc 	ld  [ %fp + -36 ], %g1
    556c:	80 a0 60 6c 	cmp  %g1, 0x6c
    5570:	12 80 00 0a 	bne  5598 <ee_vsprintf+0x76c>
    5574:	01 00 00 00 	nop 
    5578:	c2 07 a0 4c 	ld  [ %fp + 0x4c ], %g1
    557c:	c2 00 40 00 	ld  [ %g1 ], %g1
    5580:	c2 27 bf fc 	st  %g1, [ %fp + -4 ]
    5584:	c2 07 a0 4c 	ld  [ %fp + 0x4c ], %g1
    5588:	82 00 60 04 	add  %g1, 4, %g1
    558c:	c2 27 a0 4c 	st  %g1, [ %fp + 0x4c ]
    5590:	10 80 00 15 	b  55e4 <ee_vsprintf+0x7b8>
    5594:	01 00 00 00 	nop 
    5598:	c2 07 bf e8 	ld  [ %fp + -24 ], %g1
    559c:	82 08 60 02 	and  %g1, 2, %g1
    55a0:	80 a0 60 00 	cmp  %g1, 0
    55a4:	02 80 00 0a 	be  55cc <ee_vsprintf+0x7a0>
    55a8:	01 00 00 00 	nop 
    55ac:	c2 07 a0 4c 	ld  [ %fp + 0x4c ], %g1
    55b0:	c2 00 40 00 	ld  [ %g1 ], %g1
    55b4:	c2 27 bf fc 	st  %g1, [ %fp + -4 ]
    55b8:	c2 07 a0 4c 	ld  [ %fp + 0x4c ], %g1
    55bc:	82 00 60 04 	add  %g1, 4, %g1
    55c0:	c2 27 a0 4c 	st  %g1, [ %fp + 0x4c ]
    55c4:	10 80 00 08 	b  55e4 <ee_vsprintf+0x7b8>
    55c8:	01 00 00 00 	nop 
    55cc:	c2 07 a0 4c 	ld  [ %fp + 0x4c ], %g1
    55d0:	c2 00 40 00 	ld  [ %g1 ], %g1
    55d4:	c2 27 bf fc 	st  %g1, [ %fp + -4 ]
    55d8:	c2 07 a0 4c 	ld  [ %fp + 0x4c ], %g1
    55dc:	82 00 60 04 	add  %g1, 4, %g1
    55e0:	c2 27 a0 4c 	st  %g1, [ %fp + 0x4c ]
    55e4:	c2 07 bf fc 	ld  [ %fp + -4 ], %g1
    55e8:	d0 07 bf f0 	ld  [ %fp + -16 ], %o0
    55ec:	92 10 00 01 	mov  %g1, %o1
    55f0:	d4 07 bf f4 	ld  [ %fp + -12 ], %o2
    55f4:	d6 07 bf e4 	ld  [ %fp + -28 ], %o3
    55f8:	d8 07 bf e0 	ld  [ %fp + -32 ], %o4
    55fc:	da 07 bf e8 	ld  [ %fp + -24 ], %o5
    5600:	7f ff fb 40 	call  4300 <number>
    5604:	01 00 00 00 	nop 
    5608:	d0 27 bf f0 	st  %o0, [ %fp + -16 ]
    560c:	c2 07 a0 48 	ld  [ %fp + 0x48 ], %g1
    5610:	82 00 60 01 	inc  %g1
    5614:	c2 27 a0 48 	st  %g1, [ %fp + 0x48 ]
    5618:	c2 07 a0 48 	ld  [ %fp + 0x48 ], %g1
    561c:	c2 08 40 00 	ldub  [ %g1 ], %g1
    5620:	83 28 60 18 	sll  %g1, 0x18, %g1
    5624:	83 38 60 18 	sra  %g1, 0x18, %g1
    5628:	80 a0 60 00 	cmp  %g1, 0
    562c:	12 bf fe 08 	bne  4e4c <ee_vsprintf+0x20>
    5630:	01 00 00 00 	nop 
    5634:	c2 07 bf f0 	ld  [ %fp + -16 ], %g1
    5638:	c0 28 40 00 	clrb  [ %g1 ]
    563c:	c4 07 bf f0 	ld  [ %fp + -16 ], %g2
    5640:	c2 07 a0 44 	ld  [ %fp + 0x44 ], %g1
    5644:	82 20 80 01 	sub  %g2, %g1, %g1
    5648:	b0 10 00 01 	mov  %g1, %i0
    564c:	81 e8 00 00 	restore 
    5650:	81 c3 e0 08 	retl 
    5654:	01 00 00 00 	nop 

00005658 <uart_send_char>:
    5658:	9d e3 bf 98 	save  %sp, -104, %sp
    565c:	82 10 00 18 	mov  %i0, %g1
    5660:	c2 2f a0 44 	stb  %g1, [ %fp + 0x44 ]
    5664:	10 80 00 03 	b  5670 <uart_send_char+0x18>
    5668:	01 00 00 00 	nop 
    566c:	01 00 00 00 	nop 
    5670:	c2 0f a0 44 	ldub  [ %fp + 0x44 ], %g1
    5674:	83 28 60 18 	sll  %g1, 0x18, %g1
    5678:	83 38 60 18 	sra  %g1, 0x18, %g1
    567c:	90 10 00 01 	mov  %g1, %o0
    5680:	40 00 03 a8 	call  6520 <__ajit_serial_putchar__>
    5684:	01 00 00 00 	nop 
    5688:	d0 27 bf fc 	st  %o0, [ %fp + -4 ]
    568c:	c2 07 bf fc 	ld  [ %fp + -4 ], %g1
    5690:	80 a0 60 00 	cmp  %g1, 0
    5694:	02 bf ff f6 	be  566c <uart_send_char+0x14>
    5698:	01 00 00 00 	nop 
    569c:	01 00 00 00 	nop 
    56a0:	10 80 00 03 	b  56ac <uart_send_char+0x54>
    56a4:	01 00 00 00 	nop 
    56a8:	01 00 00 00 	nop 
    56ac:	c0 27 bf f8 	clr  [ %fp + -8 ]
    56b0:	03 3f ff cc 	sethi  %hi(0xffff3000), %g1
    56b4:	82 10 62 00 	or  %g1, 0x200, %g1	! ffff3200 <CVTBUF+0xbfff31f8>
    56b8:	fa 80 44 00 	lda  [ %g1 ] #ASI_SCRATCHPAD, %i5
    56bc:	fa 27 bf f8 	st  %i5, [ %fp + -8 ]
    56c0:	c2 07 bf f8 	ld  [ %fp + -8 ], %g1
    56c4:	82 08 60 08 	and  %g1, 8, %g1
    56c8:	80 a0 60 00 	cmp  %g1, 0
    56cc:	02 80 00 07 	be  56e8 <uart_send_char+0x90>
    56d0:	01 00 00 00 	nop 
    56d4:	c2 07 bf f8 	ld  [ %fp + -8 ], %g1
    56d8:	82 08 60 01 	and  %g1, 1, %g1
    56dc:	80 a0 60 00 	cmp  %g1, 0
    56e0:	12 bf ff f2 	bne  56a8 <uart_send_char+0x50>
    56e4:	01 00 00 00 	nop 
    56e8:	81 e8 00 00 	restore 
    56ec:	81 c3 e0 08 	retl 
    56f0:	01 00 00 00 	nop 

000056f4 <ee_printf>:
    56f4:	9d e3 bb 90 	save  %sp, -1136, %sp
    56f8:	f2 27 a0 48 	st  %i1, [ %fp + 0x48 ]
    56fc:	f4 27 a0 4c 	st  %i2, [ %fp + 0x4c ]
    5700:	f6 27 a0 50 	st  %i3, [ %fp + 0x50 ]
    5704:	f8 27 a0 54 	st  %i4, [ %fp + 0x54 ]
    5708:	fa 27 a0 58 	st  %i5, [ %fp + 0x58 ]
    570c:	f0 27 a0 44 	st  %i0, [ %fp + 0x44 ]
    5710:	c0 27 bf f8 	clr  [ %fp + -8 ]
    5714:	82 07 a0 48 	add  %fp, 0x48, %g1
    5718:	c2 27 bb f4 	st  %g1, [ %fp + -1036 ]
    571c:	c2 07 bb f4 	ld  [ %fp + -1036 ], %g1
    5720:	84 07 bb f8 	add  %fp, -1032, %g2
    5724:	90 10 00 02 	mov  %g2, %o0
    5728:	d2 07 a0 44 	ld  [ %fp + 0x44 ], %o1
    572c:	94 10 00 01 	mov  %g1, %o2
    5730:	7f ff fd bf 	call  4e2c <ee_vsprintf>
    5734:	01 00 00 00 	nop 
    5738:	82 07 bb f8 	add  %fp, -1032, %g1
    573c:	c2 27 bf fc 	st  %g1, [ %fp + -4 ]
    5740:	10 80 00 0f 	b  577c <ee_printf+0x88>
    5744:	01 00 00 00 	nop 
    5748:	c2 07 bf fc 	ld  [ %fp + -4 ], %g1
    574c:	c2 08 40 00 	ldub  [ %g1 ], %g1
    5750:	83 28 60 18 	sll  %g1, 0x18, %g1
    5754:	83 38 60 18 	sra  %g1, 0x18, %g1
    5758:	90 10 00 01 	mov  %g1, %o0
    575c:	7f ff ff bf 	call  5658 <uart_send_char>
    5760:	01 00 00 00 	nop 
    5764:	c2 07 bf f8 	ld  [ %fp + -8 ], %g1
    5768:	82 00 60 01 	inc  %g1
    576c:	c2 27 bf f8 	st  %g1, [ %fp + -8 ]
    5770:	c2 07 bf fc 	ld  [ %fp + -4 ], %g1
    5774:	82 00 60 01 	inc  %g1
    5778:	c2 27 bf fc 	st  %g1, [ %fp + -4 ]
    577c:	c2 07 bf fc 	ld  [ %fp + -4 ], %g1
    5780:	c2 08 40 00 	ldub  [ %g1 ], %g1
    5784:	83 28 60 18 	sll  %g1, 0x18, %g1
    5788:	83 38 60 18 	sra  %g1, 0x18, %g1
    578c:	80 a0 60 00 	cmp  %g1, 0
    5790:	12 bf ff ee 	bne  5748 <ee_printf+0x54>
    5794:	01 00 00 00 	nop 
    5798:	c2 07 bf f8 	ld  [ %fp + -8 ], %g1
    579c:	b0 10 00 01 	mov  %g1, %i0
    57a0:	81 e8 00 00 	restore 
    57a4:	81 c3 e0 08 	retl 
    57a8:	01 00 00 00 	nop 

000057ac <__modf>:
    57ac:	9d e3 bf 80 	save  %sp, -128, %sp
    57b0:	f0 3f bf e8 	std  %i0, [ %fp + -24 ]
    57b4:	f4 27 a0 4c 	st  %i2, [ %fp + 0x4c ]
    57b8:	d1 1f bf e8 	ldd  [ %fp + -24 ], %f8
    57bc:	95 a0 1a 48 	fdtoi  %f8, %f10
    57c0:	d5 27 bf e4 	st  %f10, [ %fp + -28 ]
    57c4:	c2 07 bf e4 	ld  [ %fp + -28 ], %g1
    57c8:	c2 27 bf fc 	st  %g1, [ %fp + -4 ]
    57cc:	c2 07 bf fc 	ld  [ %fp + -4 ], %g1
    57d0:	c2 27 bf e4 	st  %g1, [ %fp + -28 ]
    57d4:	d5 07 bf e4 	ld  [ %fp + -28 ], %f10
    57d8:	91 a0 19 0a 	fitod  %f10, %f8
    57dc:	c2 07 a0 4c 	ld  [ %fp + 0x4c ], %g1
    57e0:	d1 38 40 00 	std  %f8, [ %g1 ]
    57e4:	c2 07 a0 4c 	ld  [ %fp + 0x4c ], %g1
    57e8:	d1 18 40 00 	ldd  [ %g1 ], %f8
    57ec:	d5 1f bf e8 	ldd  [ %fp + -24 ], %f10
    57f0:	91 a2 88 c8 	fsubd  %f10, %f8, %f8
    57f4:	d1 3f bf f0 	std  %f8, [ %fp + -16 ]
    57f8:	d1 1f bf f0 	ldd  [ %fp + -16 ], %f8
    57fc:	81 a0 00 28 	fmovs  %f8, %f0
    5800:	83 a0 00 29 	fmovs  %f9, %f1
    5804:	81 e8 00 00 	restore 
    5808:	81 c3 e0 08 	retl 
    580c:	01 00 00 00 	nop 

00005810 <cvt>:
    5810:	9d e3 bf 68 	save  %sp, -152, %sp
    5814:	f0 3f bf d8 	std  %i0, [ %fp + -40 ]
    5818:	f4 27 a0 4c 	st  %i2, [ %fp + 0x4c ]
    581c:	f6 27 a0 50 	st  %i3, [ %fp + 0x50 ]
    5820:	f8 27 a0 54 	st  %i4, [ %fp + 0x54 ]
    5824:	fa 27 a0 58 	st  %i5, [ %fp + 0x58 ]
    5828:	c2 07 a0 4c 	ld  [ %fp + 0x4c ], %g1
    582c:	80 a0 60 00 	cmp  %g1, 0
    5830:	16 80 00 03 	bge  583c <cvt+0x2c>
    5834:	01 00 00 00 	nop 
    5838:	c0 27 a0 4c 	clr  [ %fp + 0x4c ]
    583c:	c2 07 a0 4c 	ld  [ %fp + 0x4c ], %g1
    5840:	80 a0 60 4e 	cmp  %g1, 0x4e
    5844:	04 80 00 04 	ble  5854 <cvt+0x44>
    5848:	01 00 00 00 	nop 
    584c:	82 10 20 4e 	mov  0x4e, %g1	! 4e <start+0x4e>
    5850:	c2 27 a0 4c 	st  %g1, [ %fp + 0x4c ]
    5854:	c0 27 bf fc 	clr  [ %fp + -4 ]
    5858:	c2 07 a0 54 	ld  [ %fp + 0x54 ], %g1
    585c:	c0 20 40 00 	clr  [ %g1 ]
    5860:	c2 07 a0 58 	ld  [ %fp + 0x58 ], %g1
    5864:	c2 27 bf f8 	st  %g1, [ %fp + -8 ]
    5868:	d5 1f bf d8 	ldd  [ %fp + -40 ], %f10
    586c:	03 10 00 00 	sethi  %hi(0x40000000), %g1
    5870:	82 10 60 b0 	or  %g1, 0xb0, %g1	! 400000b0 <CVTBUF+0xa8>
    5874:	d1 18 40 00 	ldd  [ %g1 ], %f8
    5878:	81 aa 8a c8 	fcmped  %f10, %f8
    587c:	01 00 00 00 	nop 
    5880:	19 80 00 08 	fbuge  58a0 <cvt+0x90>
    5884:	01 00 00 00 	nop 
    5888:	c2 07 a0 54 	ld  [ %fp + 0x54 ], %g1
    588c:	84 10 20 01 	mov  1, %g2
    5890:	c4 20 40 00 	st  %g2, [ %g1 ]
    5894:	d1 1f bf d8 	ldd  [ %fp + -40 ], %f8
    5898:	91 a0 00 a8 	fnegs  %f8, %f8
    589c:	d1 3f bf d8 	std  %f8, [ %fp + -40 ]
    58a0:	82 07 bf e8 	add  %fp, -24, %g1
    58a4:	d0 1f bf d8 	ldd  [ %fp + -40 ], %o0
    58a8:	94 10 00 01 	mov  %g1, %o2
    58ac:	7f ff ff c0 	call  57ac <__modf>
    58b0:	01 00 00 00 	nop 
    58b4:	c1 3f bf d8 	std  %f0, [ %fp + -40 ]
    58b8:	c2 07 a0 58 	ld  [ %fp + 0x58 ], %g1
    58bc:	82 00 60 50 	add  %g1, 0x50, %g1
    58c0:	c2 27 bf f4 	st  %g1, [ %fp + -12 ]
    58c4:	d5 1f bf e8 	ldd  [ %fp + -24 ], %f10
    58c8:	03 10 00 00 	sethi  %hi(0x40000000), %g1
    58cc:	82 10 60 b0 	or  %g1, 0xb0, %g1	! 400000b0 <CVTBUF+0xa8>
    58d0:	d1 18 40 00 	ldd  [ %g1 ], %f8
    58d4:	81 aa 8a 48 	fcmpd  %f10, %f8
    58d8:	01 00 00 00 	nop 
    58dc:	13 80 00 47 	fbe  59f8 <cvt+0x1e8>
    58e0:	01 00 00 00 	nop 
    58e4:	c2 07 a0 58 	ld  [ %fp + 0x58 ], %g1
    58e8:	82 00 60 50 	add  %g1, 0x50, %g1
    58ec:	c2 27 bf f4 	st  %g1, [ %fp + -12 ]
    58f0:	10 80 00 26 	b  5988 <cvt+0x178>
    58f4:	01 00 00 00 	nop 
    58f8:	d5 1f bf e8 	ldd  [ %fp + -24 ], %f10
    58fc:	03 10 00 00 	sethi  %hi(0x40000000), %g1
    5900:	82 10 60 b8 	or  %g1, 0xb8, %g1	! 400000b8 <CVTBUF+0xb0>
    5904:	d1 18 40 00 	ldd  [ %g1 ], %f8
    5908:	91 a2 89 c8 	fdivd  %f10, %f8, %f8
    590c:	82 07 bf e8 	add  %fp, -24, %g1
    5910:	d1 3f bf d0 	std  %f8, [ %fp + -48 ]
    5914:	d0 1f bf d0 	ldd  [ %fp + -48 ], %o0
    5918:	94 10 00 01 	mov  %g1, %o2
    591c:	7f ff ff a4 	call  57ac <__modf>
    5920:	01 00 00 00 	nop 
    5924:	91 a0 00 20 	fmovs  %f0, %f8
    5928:	93 a0 00 21 	fmovs  %f1, %f9
    592c:	d1 3f bf e0 	std  %f8, [ %fp + -32 ]
    5930:	c2 07 bf f4 	ld  [ %fp + -12 ], %g1
    5934:	82 00 7f ff 	add  %g1, -1, %g1
    5938:	c2 27 bf f4 	st  %g1, [ %fp + -12 ]
    593c:	d5 1f bf e0 	ldd  [ %fp + -32 ], %f10
    5940:	03 10 00 00 	sethi  %hi(0x40000000), %g1
    5944:	82 10 60 c0 	or  %g1, 0xc0, %g1	! 400000c0 <CVTBUF+0xb8>
    5948:	d1 18 40 00 	ldd  [ %g1 ], %f8
    594c:	95 a2 88 48 	faddd  %f10, %f8, %f10
    5950:	03 10 00 00 	sethi  %hi(0x40000000), %g1
    5954:	82 10 60 b8 	or  %g1, 0xb8, %g1	! 400000b8 <CVTBUF+0xb0>
    5958:	d1 18 40 00 	ldd  [ %g1 ], %f8
    595c:	91 a2 89 48 	fmuld  %f10, %f8, %f8
    5960:	95 a0 1a 48 	fdtoi  %f8, %f10
    5964:	d5 27 bf cc 	st  %f10, [ %fp + -52 ]
    5968:	c2 07 bf cc 	ld  [ %fp + -52 ], %g1
    596c:	82 00 60 30 	add  %g1, 0x30, %g1
    5970:	84 10 00 01 	mov  %g1, %g2
    5974:	c2 07 bf f4 	ld  [ %fp + -12 ], %g1
    5978:	c4 28 40 00 	stb  %g2, [ %g1 ]
    597c:	c2 07 bf fc 	ld  [ %fp + -4 ], %g1
    5980:	82 00 60 01 	inc  %g1
    5984:	c2 27 bf fc 	st  %g1, [ %fp + -4 ]
    5988:	d5 1f bf e8 	ldd  [ %fp + -24 ], %f10
    598c:	03 10 00 00 	sethi  %hi(0x40000000), %g1
    5990:	82 10 60 b0 	or  %g1, 0xb0, %g1	! 400000b0 <CVTBUF+0xa8>
    5994:	d1 18 40 00 	ldd  [ %g1 ], %f8
    5998:	81 aa 8a 48 	fcmpd  %f10, %f8
    599c:	01 00 00 00 	nop 
    59a0:	03 bf ff d6 	fbne  58f8 <cvt+0xe8>
    59a4:	01 00 00 00 	nop 
    59a8:	10 80 00 0c 	b  59d8 <cvt+0x1c8>
    59ac:	01 00 00 00 	nop 
    59b0:	c2 07 bf f4 	ld  [ %fp + -12 ], %g1
    59b4:	c4 08 40 00 	ldub  [ %g1 ], %g2
    59b8:	c2 07 bf f8 	ld  [ %fp + -8 ], %g1
    59bc:	c4 28 40 00 	stb  %g2, [ %g1 ]
    59c0:	c2 07 bf f8 	ld  [ %fp + -8 ], %g1
    59c4:	82 00 60 01 	inc  %g1
    59c8:	c2 27 bf f8 	st  %g1, [ %fp + -8 ]
    59cc:	c2 07 bf f4 	ld  [ %fp + -12 ], %g1
    59d0:	82 00 60 01 	inc  %g1
    59d4:	c2 27 bf f4 	st  %g1, [ %fp + -12 ]
    59d8:	c2 07 a0 58 	ld  [ %fp + 0x58 ], %g1
    59dc:	84 00 60 50 	add  %g1, 0x50, %g2
    59e0:	c2 07 bf f4 	ld  [ %fp + -12 ], %g1
    59e4:	80 a0 80 01 	cmp  %g2, %g1
    59e8:	18 bf ff f2 	bgu  59b0 <cvt+0x1a0>
    59ec:	01 00 00 00 	nop 
    59f0:	10 80 00 22 	b  5a78 <cvt+0x268>
    59f4:	01 00 00 00 	nop 
    59f8:	d5 1f bf d8 	ldd  [ %fp + -40 ], %f10
    59fc:	03 10 00 00 	sethi  %hi(0x40000000), %g1
    5a00:	82 10 60 b0 	or  %g1, 0xb0, %g1	! 400000b0 <CVTBUF+0xa8>
    5a04:	d1 18 40 00 	ldd  [ %g1 ], %f8
    5a08:	81 aa 8a c8 	fcmped  %f10, %f8
    5a0c:	01 00 00 00 	nop 
    5a10:	0d 80 00 0b 	fbg  5a3c <cvt+0x22c>
    5a14:	01 00 00 00 	nop 
    5a18:	10 80 00 18 	b  5a78 <cvt+0x268>
    5a1c:	01 00 00 00 	nop 
    5a20:	d1 1f bf e0 	ldd  [ %fp + -32 ], %f8
    5a24:	d1 3f bf d8 	std  %f8, [ %fp + -40 ]
    5a28:	c2 07 bf fc 	ld  [ %fp + -4 ], %g1
    5a2c:	82 00 7f ff 	add  %g1, -1, %g1
    5a30:	c2 27 bf fc 	st  %g1, [ %fp + -4 ]
    5a34:	10 80 00 03 	b  5a40 <cvt+0x230>
    5a38:	01 00 00 00 	nop 
    5a3c:	01 00 00 00 	nop 
    5a40:	d5 1f bf d8 	ldd  [ %fp + -40 ], %f10
    5a44:	03 10 00 00 	sethi  %hi(0x40000000), %g1
    5a48:	82 10 60 b8 	or  %g1, 0xb8, %g1	! 400000b8 <CVTBUF+0xb0>
    5a4c:	d1 18 40 00 	ldd  [ %g1 ], %f8
    5a50:	91 a2 89 48 	fmuld  %f10, %f8, %f8
    5a54:	d1 3f bf e0 	std  %f8, [ %fp + -32 ]
    5a58:	d5 1f bf e0 	ldd  [ %fp + -32 ], %f10
    5a5c:	03 10 00 00 	sethi  %hi(0x40000000), %g1
    5a60:	82 10 60 c8 	or  %g1, 0xc8, %g1	! 400000c8 <CVTBUF+0xc0>
    5a64:	d1 18 40 00 	ldd  [ %g1 ], %f8
    5a68:	81 aa 8a c8 	fcmped  %f10, %f8
    5a6c:	01 00 00 00 	nop 
    5a70:	09 bf ff ec 	fbl  5a20 <cvt+0x210>
    5a74:	01 00 00 00 	nop 
    5a78:	c2 07 a0 4c 	ld  [ %fp + 0x4c ], %g1
    5a7c:	c4 07 a0 58 	ld  [ %fp + 0x58 ], %g2
    5a80:	82 00 80 01 	add  %g2, %g1, %g1
    5a84:	c2 27 bf f4 	st  %g1, [ %fp + -12 ]
    5a88:	c2 07 a0 5c 	ld  [ %fp + 0x5c ], %g1
    5a8c:	80 a0 60 00 	cmp  %g1, 0
    5a90:	12 80 00 06 	bne  5aa8 <cvt+0x298>
    5a94:	01 00 00 00 	nop 
    5a98:	c2 07 bf fc 	ld  [ %fp + -4 ], %g1
    5a9c:	c4 07 bf f4 	ld  [ %fp + -12 ], %g2
    5aa0:	82 00 80 01 	add  %g2, %g1, %g1
    5aa4:	c2 27 bf f4 	st  %g1, [ %fp + -12 ]
    5aa8:	c2 07 a0 50 	ld  [ %fp + 0x50 ], %g1
    5aac:	c4 07 bf fc 	ld  [ %fp + -4 ], %g2
    5ab0:	c4 20 40 00 	st  %g2, [ %g1 ]
    5ab4:	c4 07 bf f4 	ld  [ %fp + -12 ], %g2
    5ab8:	c2 07 a0 58 	ld  [ %fp + 0x58 ], %g1
    5abc:	80 a0 80 01 	cmp  %g2, %g1
    5ac0:	1a 80 00 1e 	bcc  5b38 <cvt+0x328>
    5ac4:	01 00 00 00 	nop 
    5ac8:	c2 07 a0 58 	ld  [ %fp + 0x58 ], %g1
    5acc:	c0 28 40 00 	clrb  [ %g1 ]
    5ad0:	c2 07 a0 58 	ld  [ %fp + 0x58 ], %g1
    5ad4:	10 80 00 6e 	b  5c8c <cvt+0x47c>
    5ad8:	01 00 00 00 	nop 
    5adc:	d5 1f bf d8 	ldd  [ %fp + -40 ], %f10
    5ae0:	03 10 00 00 	sethi  %hi(0x40000000), %g1
    5ae4:	82 10 60 b8 	or  %g1, 0xb8, %g1	! 400000b8 <CVTBUF+0xb0>
    5ae8:	d1 18 40 00 	ldd  [ %g1 ], %f8
    5aec:	91 a2 89 48 	fmuld  %f10, %f8, %f8
    5af0:	d1 3f bf d8 	std  %f8, [ %fp + -40 ]
    5af4:	82 07 bf e0 	add  %fp, -32, %g1
    5af8:	d0 1f bf d8 	ldd  [ %fp + -40 ], %o0
    5afc:	94 10 00 01 	mov  %g1, %o2
    5b00:	7f ff ff 2b 	call  57ac <__modf>
    5b04:	01 00 00 00 	nop 
    5b08:	c1 3f bf d8 	std  %f0, [ %fp + -40 ]
    5b0c:	d1 1f bf e0 	ldd  [ %fp + -32 ], %f8
    5b10:	95 a0 1a 48 	fdtoi  %f8, %f10
    5b14:	d5 27 bf cc 	st  %f10, [ %fp + -52 ]
    5b18:	c2 07 bf cc 	ld  [ %fp + -52 ], %g1
    5b1c:	82 00 60 30 	add  %g1, 0x30, %g1
    5b20:	84 10 00 01 	mov  %g1, %g2
    5b24:	c2 07 bf f8 	ld  [ %fp + -8 ], %g1
    5b28:	c4 28 40 00 	stb  %g2, [ %g1 ]
    5b2c:	c2 07 bf f8 	ld  [ %fp + -8 ], %g1
    5b30:	82 00 60 01 	inc  %g1
    5b34:	c2 27 bf f8 	st  %g1, [ %fp + -8 ]
    5b38:	c4 07 bf f8 	ld  [ %fp + -8 ], %g2
    5b3c:	c2 07 bf f4 	ld  [ %fp + -12 ], %g1
    5b40:	80 a0 80 01 	cmp  %g2, %g1
    5b44:	18 80 00 08 	bgu  5b64 <cvt+0x354>
    5b48:	01 00 00 00 	nop 
    5b4c:	c2 07 a0 58 	ld  [ %fp + 0x58 ], %g1
    5b50:	84 00 60 50 	add  %g1, 0x50, %g2
    5b54:	c2 07 bf f8 	ld  [ %fp + -8 ], %g1
    5b58:	80 a0 80 01 	cmp  %g2, %g1
    5b5c:	18 bf ff e0 	bgu  5adc <cvt+0x2cc>
    5b60:	01 00 00 00 	nop 
    5b64:	c2 07 a0 58 	ld  [ %fp + 0x58 ], %g1
    5b68:	84 00 60 50 	add  %g1, 0x50, %g2
    5b6c:	c2 07 bf f4 	ld  [ %fp + -12 ], %g1
    5b70:	80 a0 80 01 	cmp  %g2, %g1
    5b74:	18 80 00 08 	bgu  5b94 <cvt+0x384>
    5b78:	01 00 00 00 	nop 
    5b7c:	c2 07 a0 58 	ld  [ %fp + 0x58 ], %g1
    5b80:	82 00 60 4f 	add  %g1, 0x4f, %g1
    5b84:	c0 28 40 00 	clrb  [ %g1 ]
    5b88:	c2 07 a0 58 	ld  [ %fp + 0x58 ], %g1
    5b8c:	10 80 00 40 	b  5c8c <cvt+0x47c>
    5b90:	01 00 00 00 	nop 
    5b94:	c2 07 bf f4 	ld  [ %fp + -12 ], %g1
    5b98:	c2 27 bf f8 	st  %g1, [ %fp + -8 ]
    5b9c:	c2 07 bf f4 	ld  [ %fp + -12 ], %g1
    5ba0:	c2 08 40 00 	ldub  [ %g1 ], %g1
    5ba4:	82 00 60 05 	add  %g1, 5, %g1
    5ba8:	84 10 00 01 	mov  %g1, %g2
    5bac:	c2 07 bf f4 	ld  [ %fp + -12 ], %g1
    5bb0:	c4 28 40 00 	stb  %g2, [ %g1 ]
    5bb4:	10 80 00 2c 	b  5c64 <cvt+0x454>
    5bb8:	01 00 00 00 	nop 
    5bbc:	c2 07 bf f4 	ld  [ %fp + -12 ], %g1
    5bc0:	84 10 20 30 	mov  0x30, %g2
    5bc4:	c4 28 40 00 	stb  %g2, [ %g1 ]
    5bc8:	c4 07 bf f4 	ld  [ %fp + -12 ], %g2
    5bcc:	c2 07 a0 58 	ld  [ %fp + 0x58 ], %g1
    5bd0:	80 a0 80 01 	cmp  %g2, %g1
    5bd4:	08 80 00 0d 	bleu  5c08 <cvt+0x3f8>
    5bd8:	01 00 00 00 	nop 
    5bdc:	c2 07 bf f4 	ld  [ %fp + -12 ], %g1
    5be0:	82 00 7f ff 	add  %g1, -1, %g1
    5be4:	c2 27 bf f4 	st  %g1, [ %fp + -12 ]
    5be8:	c2 07 bf f4 	ld  [ %fp + -12 ], %g1
    5bec:	c2 08 40 00 	ldub  [ %g1 ], %g1
    5bf0:	82 00 60 01 	inc  %g1
    5bf4:	84 10 00 01 	mov  %g1, %g2
    5bf8:	c2 07 bf f4 	ld  [ %fp + -12 ], %g1
    5bfc:	c4 28 40 00 	stb  %g2, [ %g1 ]
    5c00:	10 80 00 19 	b  5c64 <cvt+0x454>
    5c04:	01 00 00 00 	nop 
    5c08:	c2 07 bf f4 	ld  [ %fp + -12 ], %g1
    5c0c:	84 10 20 31 	mov  0x31, %g2
    5c10:	c4 28 40 00 	stb  %g2, [ %g1 ]
    5c14:	c2 07 a0 50 	ld  [ %fp + 0x50 ], %g1
    5c18:	c2 00 40 00 	ld  [ %g1 ], %g1
    5c1c:	84 00 60 01 	add  %g1, 1, %g2
    5c20:	c2 07 a0 50 	ld  [ %fp + 0x50 ], %g1
    5c24:	c4 20 40 00 	st  %g2, [ %g1 ]
    5c28:	c2 07 a0 5c 	ld  [ %fp + 0x5c ], %g1
    5c2c:	80 a0 60 00 	cmp  %g1, 0
    5c30:	12 80 00 0d 	bne  5c64 <cvt+0x454>
    5c34:	01 00 00 00 	nop 
    5c38:	c4 07 bf f8 	ld  [ %fp + -8 ], %g2
    5c3c:	c2 07 a0 58 	ld  [ %fp + 0x58 ], %g1
    5c40:	80 a0 80 01 	cmp  %g2, %g1
    5c44:	08 80 00 05 	bleu  5c58 <cvt+0x448>
    5c48:	01 00 00 00 	nop 
    5c4c:	c2 07 bf f8 	ld  [ %fp + -8 ], %g1
    5c50:	84 10 20 30 	mov  0x30, %g2
    5c54:	c4 28 40 00 	stb  %g2, [ %g1 ]
    5c58:	c2 07 bf f8 	ld  [ %fp + -8 ], %g1
    5c5c:	82 00 60 01 	inc  %g1
    5c60:	c2 27 bf f8 	st  %g1, [ %fp + -8 ]
    5c64:	c2 07 bf f4 	ld  [ %fp + -12 ], %g1
    5c68:	c2 08 40 00 	ldub  [ %g1 ], %g1
    5c6c:	83 28 60 18 	sll  %g1, 0x18, %g1
    5c70:	83 38 60 18 	sra  %g1, 0x18, %g1
    5c74:	80 a0 60 39 	cmp  %g1, 0x39
    5c78:	14 bf ff d1 	bg  5bbc <cvt+0x3ac>
    5c7c:	01 00 00 00 	nop 
    5c80:	c2 07 bf f8 	ld  [ %fp + -8 ], %g1
    5c84:	c0 28 40 00 	clrb  [ %g1 ]
    5c88:	c2 07 a0 58 	ld  [ %fp + 0x58 ], %g1
    5c8c:	b0 10 00 01 	mov  %g1, %i0
    5c90:	81 e8 00 00 	restore 
    5c94:	81 c3 e0 08 	retl 
    5c98:	01 00 00 00 	nop 

00005c9c <ecvt>:
    5c9c:	9d e3 bf 90 	save  %sp, -112, %sp
    5ca0:	f0 3f bf f8 	std  %i0, [ %fp + -8 ]
    5ca4:	f4 27 a0 4c 	st  %i2, [ %fp + 0x4c ]
    5ca8:	f6 27 a0 50 	st  %i3, [ %fp + 0x50 ]
    5cac:	f8 27 a0 54 	st  %i4, [ %fp + 0x54 ]
    5cb0:	82 10 20 01 	mov  1, %g1
    5cb4:	c2 23 a0 5c 	st  %g1, [ %sp + 0x5c ]
    5cb8:	d0 1f bf f8 	ldd  [ %fp + -8 ], %o0
    5cbc:	d4 07 a0 4c 	ld  [ %fp + 0x4c ], %o2
    5cc0:	d6 07 a0 50 	ld  [ %fp + 0x50 ], %o3
    5cc4:	d8 07 a0 54 	ld  [ %fp + 0x54 ], %o4
    5cc8:	03 10 00 00 	sethi  %hi(0x40000000), %g1
    5ccc:	9a 10 60 08 	or  %g1, 8, %o5	! 40000008 <CVTBUF>
    5cd0:	7f ff fe d0 	call  5810 <cvt>
    5cd4:	01 00 00 00 	nop 
    5cd8:	82 10 00 08 	mov  %o0, %g1
    5cdc:	b0 10 00 01 	mov  %g1, %i0
    5ce0:	81 e8 00 00 	restore 
    5ce4:	81 c3 e0 08 	retl 
    5ce8:	01 00 00 00 	nop 

00005cec <ecvtbuf>:
    5cec:	9d e3 bf 90 	save  %sp, -112, %sp
    5cf0:	f0 3f bf f8 	std  %i0, [ %fp + -8 ]
    5cf4:	f4 27 a0 4c 	st  %i2, [ %fp + 0x4c ]
    5cf8:	f6 27 a0 50 	st  %i3, [ %fp + 0x50 ]
    5cfc:	f8 27 a0 54 	st  %i4, [ %fp + 0x54 ]
    5d00:	fa 27 a0 58 	st  %i5, [ %fp + 0x58 ]
    5d04:	82 10 20 01 	mov  1, %g1
    5d08:	c2 23 a0 5c 	st  %g1, [ %sp + 0x5c ]
    5d0c:	d0 1f bf f8 	ldd  [ %fp + -8 ], %o0
    5d10:	d4 07 a0 4c 	ld  [ %fp + 0x4c ], %o2
    5d14:	d6 07 a0 50 	ld  [ %fp + 0x50 ], %o3
    5d18:	d8 07 a0 54 	ld  [ %fp + 0x54 ], %o4
    5d1c:	da 07 a0 58 	ld  [ %fp + 0x58 ], %o5
    5d20:	7f ff fe bc 	call  5810 <cvt>
    5d24:	01 00 00 00 	nop 
    5d28:	82 10 00 08 	mov  %o0, %g1
    5d2c:	b0 10 00 01 	mov  %g1, %i0
    5d30:	81 e8 00 00 	restore 
    5d34:	81 c3 e0 08 	retl 
    5d38:	01 00 00 00 	nop 

00005d3c <fcvt>:
    5d3c:	9d e3 bf 90 	save  %sp, -112, %sp
    5d40:	f0 3f bf f8 	std  %i0, [ %fp + -8 ]
    5d44:	f4 27 a0 4c 	st  %i2, [ %fp + 0x4c ]
    5d48:	f6 27 a0 50 	st  %i3, [ %fp + 0x50 ]
    5d4c:	f8 27 a0 54 	st  %i4, [ %fp + 0x54 ]
    5d50:	c0 23 a0 5c 	clr  [ %sp + 0x5c ]
    5d54:	d0 1f bf f8 	ldd  [ %fp + -8 ], %o0
    5d58:	d4 07 a0 4c 	ld  [ %fp + 0x4c ], %o2
    5d5c:	d6 07 a0 50 	ld  [ %fp + 0x50 ], %o3
    5d60:	d8 07 a0 54 	ld  [ %fp + 0x54 ], %o4
    5d64:	03 10 00 00 	sethi  %hi(0x40000000), %g1
    5d68:	9a 10 60 08 	or  %g1, 8, %o5	! 40000008 <CVTBUF>
    5d6c:	7f ff fe a9 	call  5810 <cvt>
    5d70:	01 00 00 00 	nop 
    5d74:	82 10 00 08 	mov  %o0, %g1
    5d78:	b0 10 00 01 	mov  %g1, %i0
    5d7c:	81 e8 00 00 	restore 
    5d80:	81 c3 e0 08 	retl 
    5d84:	01 00 00 00 	nop 

00005d88 <fcvtbuf>:
    5d88:	9d e3 bf 90 	save  %sp, -112, %sp
    5d8c:	f0 3f bf f8 	std  %i0, [ %fp + -8 ]
    5d90:	f4 27 a0 4c 	st  %i2, [ %fp + 0x4c ]
    5d94:	f6 27 a0 50 	st  %i3, [ %fp + 0x50 ]
    5d98:	f8 27 a0 54 	st  %i4, [ %fp + 0x54 ]
    5d9c:	fa 27 a0 58 	st  %i5, [ %fp + 0x58 ]
    5da0:	c0 23 a0 5c 	clr  [ %sp + 0x5c ]
    5da4:	d0 1f bf f8 	ldd  [ %fp + -8 ], %o0
    5da8:	d4 07 a0 4c 	ld  [ %fp + 0x4c ], %o2
    5dac:	d6 07 a0 50 	ld  [ %fp + 0x50 ], %o3
    5db0:	d8 07 a0 54 	ld  [ %fp + 0x54 ], %o4
    5db4:	da 07 a0 58 	ld  [ %fp + 0x58 ], %o5
    5db8:	7f ff fe 96 	call  5810 <cvt>
    5dbc:	01 00 00 00 	nop 
    5dc0:	82 10 00 08 	mov  %o0, %g1
    5dc4:	b0 10 00 01 	mov  %g1, %i0
    5dc8:	81 e8 00 00 	restore 
    5dcc:	81 c3 e0 08 	retl 
    5dd0:	01 00 00 00 	nop 

00005dd4 <__ajit_clear_all_gp_registers__>:
    5dd4:	9d e3 bf 98 	save  %sp, -104, %sp
    5dd8:	82 10 00 00 	mov  %g0, %g1
    5ddc:	84 10 00 00 	mov  %g0, %g2
    5de0:	86 10 00 00 	mov  %g0, %g3
    5de4:	88 10 00 00 	mov  %g0, %g4
    5de8:	8a 10 00 00 	mov  %g0, %g5
    5dec:	8c 10 00 00 	mov  %g0, %g6
    5df0:	8e 10 00 00 	mov  %g0, %g7
    5df4:	b0 10 00 00 	mov  %g0, %i0
    5df8:	b2 10 00 00 	mov  %g0, %i1
    5dfc:	b4 10 00 00 	mov  %g0, %i2
    5e00:	b6 10 00 00 	mov  %g0, %i3
    5e04:	b8 10 00 00 	mov  %g0, %i4
    5e08:	ba 10 00 00 	mov  %g0, %i5
    5e0c:	bc 10 00 00 	mov  %g0, %fp
    5e10:	be 10 00 00 	mov  %g0, %i7
    5e14:	a0 10 00 00 	mov  %g0, %l0
    5e18:	a2 10 00 00 	mov  %g0, %l1
    5e1c:	a4 10 00 00 	mov  %g0, %l2
    5e20:	a6 10 00 00 	mov  %g0, %l3
    5e24:	a8 10 00 00 	mov  %g0, %l4
    5e28:	aa 10 00 00 	mov  %g0, %l5
    5e2c:	ac 10 00 00 	mov  %g0, %l6
    5e30:	ae 10 00 00 	mov  %g0, %l7
    5e34:	90 10 00 00 	mov  %g0, %o0
    5e38:	92 10 00 00 	mov  %g0, %o1
    5e3c:	94 10 00 00 	mov  %g0, %o2
    5e40:	96 10 00 00 	mov  %g0, %o3
    5e44:	98 10 00 00 	mov  %g0, %o4
    5e48:	9a 10 00 00 	mov  %g0, %o5
    5e4c:	9c 10 00 00 	mov  %g0, %sp
    5e50:	9e 10 00 00 	mov  %g0, %o7
    5e54:	c0 27 bf fc 	clr  [ %fp + -4 ]
    5e58:	c0 27 bf fc 	clr  [ %fp + -4 ]
    5e5c:	10 80 00 16 	b  5eb4 <__ajit_clear_all_gp_registers__+0xe0>
    5e60:	01 00 00 00 	nop 
    5e64:	81 e0 00 00 	save 
    5e68:	a0 10 00 00 	mov  %g0, %l0
    5e6c:	a2 10 00 00 	mov  %g0, %l1
    5e70:	a4 10 00 00 	mov  %g0, %l2
    5e74:	a6 10 00 00 	mov  %g0, %l3
    5e78:	a8 10 00 00 	mov  %g0, %l4
    5e7c:	aa 10 00 00 	mov  %g0, %l5
    5e80:	ac 10 00 00 	mov  %g0, %l6
    5e84:	ae 10 00 00 	mov  %g0, %l7
    5e88:	90 10 00 00 	mov  %g0, %o0
    5e8c:	92 10 00 00 	mov  %g0, %o1
    5e90:	94 10 00 00 	mov  %g0, %o2
    5e94:	96 10 00 00 	mov  %g0, %o3
    5e98:	98 10 00 00 	mov  %g0, %o4
    5e9c:	9a 10 00 00 	mov  %g0, %o5
    5ea0:	9c 10 00 00 	mov  %g0, %sp
    5ea4:	9e 10 00 00 	mov  %g0, %o7
    5ea8:	c2 07 bf fc 	ld  [ %fp + -4 ], %g1
    5eac:	82 00 60 01 	inc  %g1
    5eb0:	c2 27 bf fc 	st  %g1, [ %fp + -4 ]
    5eb4:	c2 07 bf fc 	ld  [ %fp + -4 ], %g1
    5eb8:	80 a0 60 06 	cmp  %g1, 6
    5ebc:	04 bf ff ea 	ble  5e64 <__ajit_clear_all_gp_registers__+0x90>
    5ec0:	01 00 00 00 	nop 
    5ec4:	c0 27 bf fc 	clr  [ %fp + -4 ]
    5ec8:	10 80 00 06 	b  5ee0 <__ajit_clear_all_gp_registers__+0x10c>
    5ecc:	01 00 00 00 	nop 
    5ed0:	81 e8 00 00 	restore 
    5ed4:	c2 07 bf fc 	ld  [ %fp + -4 ], %g1
    5ed8:	82 00 60 01 	inc  %g1
    5edc:	c2 27 bf fc 	st  %g1, [ %fp + -4 ]
    5ee0:	c2 07 bf fc 	ld  [ %fp + -4 ], %g1
    5ee4:	80 a0 60 06 	cmp  %g1, 6
    5ee8:	04 bf ff fa 	ble  5ed0 <__ajit_clear_all_gp_registers__+0xfc>
    5eec:	01 00 00 00 	nop 
    5ef0:	81 e8 00 00 	restore 
    5ef4:	81 c3 e0 08 	retl 
    5ef8:	01 00 00 00 	nop 

00005efc <__ajit_read_cycle_count_register_high__>:
    5efc:	9d e3 bf 98 	save  %sp, -104, %sp
    5f00:	bb 47 80 00 	rd  %asr30, %i5
    5f04:	fa 27 bf fc 	st  %i5, [ %fp + -4 ]
    5f08:	c2 07 bf fc 	ld  [ %fp + -4 ], %g1
    5f0c:	b0 10 00 01 	mov  %g1, %i0
    5f10:	81 e8 00 00 	restore 
    5f14:	81 c3 e0 08 	retl 
    5f18:	01 00 00 00 	nop 

00005f1c <__ajit_read_cycle_count_register_low__>:
    5f1c:	9d e3 bf 98 	save  %sp, -104, %sp
    5f20:	bb 47 c0 00 	rd  %asr31, %i5
    5f24:	fa 27 bf fc 	st  %i5, [ %fp + -4 ]
    5f28:	c2 07 bf fc 	ld  [ %fp + -4 ], %g1
    5f2c:	b0 10 00 01 	mov  %g1, %i0
    5f30:	81 e8 00 00 	restore 
    5f34:	81 c3 e0 08 	retl 
    5f38:	01 00 00 00 	nop 

00005f3c <__ajit_get_clock_time>:
    5f3c:	9d e3 bf 90 	save  %sp, -112, %sp
    5f40:	7f ff ff f7 	call  5f1c <__ajit_read_cycle_count_register_low__>
    5f44:	01 00 00 00 	nop 
    5f48:	d0 27 bf fc 	st  %o0, [ %fp + -4 ]
    5f4c:	7f ff ff ec 	call  5efc <__ajit_read_cycle_count_register_high__>
    5f50:	01 00 00 00 	nop 
    5f54:	d0 27 bf f8 	st  %o0, [ %fp + -8 ]
    5f58:	c2 07 bf f8 	ld  [ %fp + -8 ], %g1
    5f5c:	84 10 20 00 	clr  %g2
    5f60:	86 10 00 01 	mov  %g1, %g3
    5f64:	c4 3f bf f0 	std  %g2, [ %fp + -16 ]
    5f68:	c2 07 bf f4 	ld  [ %fp + -12 ], %g1
    5f6c:	83 28 60 00 	sll  %g1, 0, %g1
    5f70:	c2 27 bf f0 	st  %g1, [ %fp + -16 ]
    5f74:	c0 27 bf f4 	clr  [ %fp + -12 ]
    5f78:	c2 07 bf fc 	ld  [ %fp + -4 ], %g1
    5f7c:	84 10 20 00 	clr  %g2
    5f80:	86 10 00 01 	mov  %g1, %g3
    5f84:	f8 1f bf f0 	ldd  [ %fp + -16 ], %i4
    5f88:	84 17 00 02 	or  %i4, %g2, %g2
    5f8c:	86 17 40 03 	or  %i5, %g3, %g3
    5f90:	c4 3f bf f0 	std  %g2, [ %fp + -16 ]
    5f94:	c4 1f bf f0 	ldd  [ %fp + -16 ], %g2
    5f98:	b0 10 00 02 	mov  %g2, %i0
    5f9c:	b2 10 00 03 	mov  %g3, %i1
    5fa0:	81 e8 00 00 	restore 
    5fa4:	81 c3 e0 08 	retl 
    5fa8:	01 00 00 00 	nop 

00005fac <__ajit_set_mmu_default_cacheable_bit__>:
    5fac:	9d e3 bf 98 	save  %sp, -104, %sp
    5fb0:	82 10 00 18 	mov  %i0, %g1
    5fb4:	c2 2f a0 44 	stb  %g1, [ %fp + 0x44 ]
    5fb8:	c2 0f a0 44 	ldub  [ %fp + 0x44 ], %g1
    5fbc:	82 08 60 ff 	and  %g1, 0xff, %g1
    5fc0:	80 a0 60 00 	cmp  %g1, 0
    5fc4:	02 80 00 05 	be  5fd8 <__ajit_set_mmu_default_cacheable_bit__+0x2c>
    5fc8:	01 00 00 00 	nop 
    5fcc:	82 10 21 00 	mov  0x100, %g1	! 100 <start+0x100>
    5fd0:	10 80 00 03 	b  5fdc <__ajit_set_mmu_default_cacheable_bit__+0x30>
    5fd4:	01 00 00 00 	nop 
    5fd8:	82 10 20 00 	clr  %g1	! 0 <start>
    5fdc:	c2 27 bf fc 	st  %g1, [ %fp + -4 ]
    5fe0:	c0 27 bf f8 	clr  [ %fp + -8 ]
    5fe4:	c2 07 bf fc 	ld  [ %fp + -4 ], %g1
    5fe8:	c4 07 bf f8 	ld  [ %fp + -8 ], %g2
    5fec:	c2 a0 80 80 	sta  %g1, [ %g2 ] #ASI_N
    5ff0:	81 e8 00 00 	restore 
    5ff4:	81 c3 e0 08 	retl 
    5ff8:	01 00 00 00 	nop 

00005ffc <__ajit_store_word_mmu_reg__>:
    5ffc:	9d e3 bf a0 	save  %sp, -96, %sp
    6000:	f0 27 a0 44 	st  %i0, [ %fp + 0x44 ]
    6004:	f2 27 a0 48 	st  %i1, [ %fp + 0x48 ]
    6008:	c2 07 a0 44 	ld  [ %fp + 0x44 ], %g1
    600c:	c4 07 a0 48 	ld  [ %fp + 0x48 ], %g2
    6010:	c2 a0 80 80 	sta  %g1, [ %g2 ] #ASI_N
    6014:	81 e8 00 00 	restore 
    6018:	81 c3 e0 08 	retl 
    601c:	01 00 00 00 	nop 

00006020 <__ajit_store_word_mmu_bypass__>:
    6020:	9d e3 bf a0 	save  %sp, -96, %sp
    6024:	f0 27 a0 44 	st  %i0, [ %fp + 0x44 ]
    6028:	f2 27 a0 48 	st  %i1, [ %fp + 0x48 ]
    602c:	c2 07 a0 44 	ld  [ %fp + 0x44 ], %g1
    6030:	c4 07 a0 48 	ld  [ %fp + 0x48 ], %g2
    6034:	c2 a0 84 00 	sta  %g1, [ %g2 ] #ASI_SCRATCHPAD
    6038:	81 e8 00 00 	restore 
    603c:	81 c3 e0 08 	retl 
    6040:	01 00 00 00 	nop 

00006044 <__ajit_load_word_mmu_reg__>:
    6044:	9d e3 bf 98 	save  %sp, -104, %sp
    6048:	f0 27 a0 44 	st  %i0, [ %fp + 0x44 ]
    604c:	c2 07 a0 44 	ld  [ %fp + 0x44 ], %g1
    6050:	fa 80 40 80 	lda  [ %g1 ] #ASI_N, %i5
    6054:	fa 27 bf fc 	st  %i5, [ %fp + -4 ]
    6058:	c2 07 bf fc 	ld  [ %fp + -4 ], %g1
    605c:	b0 10 00 01 	mov  %g1, %i0
    6060:	81 e8 00 00 	restore 
    6064:	81 c3 e0 08 	retl 
    6068:	01 00 00 00 	nop 

0000606c <__ajit_load_word_mmu_bypass__>:
    606c:	9d e3 bf 98 	save  %sp, -104, %sp
    6070:	f0 27 a0 44 	st  %i0, [ %fp + 0x44 ]
    6074:	c2 07 a0 44 	ld  [ %fp + 0x44 ], %g1
    6078:	fa 80 44 00 	lda  [ %g1 ] #ASI_SCRATCHPAD, %i5
    607c:	fa 27 bf fc 	st  %i5, [ %fp + -4 ]
    6080:	c2 07 bf fc 	ld  [ %fp + -4 ], %g1
    6084:	b0 10 00 01 	mov  %g1, %i0
    6088:	81 e8 00 00 	restore 
    608c:	81 c3 e0 08 	retl 
    6090:	01 00 00 00 	nop 

00006094 <__ajit_enable_mmu__>:
    6094:	9d e3 bf 98 	save  %sp, -104, %sp
    6098:	c0 27 bf fc 	clr  [ %fp + -4 ]
    609c:	d0 07 bf fc 	ld  [ %fp + -4 ], %o0
    60a0:	7f ff ff e9 	call  6044 <__ajit_load_word_mmu_reg__>
    60a4:	01 00 00 00 	nop 
    60a8:	d0 27 bf f8 	st  %o0, [ %fp + -8 ]
    60ac:	c2 07 bf f8 	ld  [ %fp + -8 ], %g1
    60b0:	82 10 60 01 	or  %g1, 1, %g1
    60b4:	c2 27 bf f8 	st  %g1, [ %fp + -8 ]
    60b8:	d0 07 bf f8 	ld  [ %fp + -8 ], %o0
    60bc:	d2 07 bf fc 	ld  [ %fp + -4 ], %o1
    60c0:	7f ff ff cf 	call  5ffc <__ajit_store_word_mmu_reg__>
    60c4:	01 00 00 00 	nop 
    60c8:	81 e8 00 00 	restore 
    60cc:	81 c3 e0 08 	retl 
    60d0:	01 00 00 00 	nop 

000060d4 <__ajit_disable_mmu__>:
    60d4:	9d e3 bf 98 	save  %sp, -104, %sp
    60d8:	c0 27 bf fc 	clr  [ %fp + -4 ]
    60dc:	d0 07 bf fc 	ld  [ %fp + -4 ], %o0
    60e0:	7f ff ff d9 	call  6044 <__ajit_load_word_mmu_reg__>
    60e4:	01 00 00 00 	nop 
    60e8:	d0 27 bf f8 	st  %o0, [ %fp + -8 ]
    60ec:	c2 07 bf f8 	ld  [ %fp + -8 ], %g1
    60f0:	82 08 7f fe 	and  %g1, -2, %g1
    60f4:	c2 27 bf f8 	st  %g1, [ %fp + -8 ]
    60f8:	d0 07 bf f8 	ld  [ %fp + -8 ], %o0
    60fc:	d2 07 bf fc 	ld  [ %fp + -4 ], %o1
    6100:	7f ff ff bf 	call  5ffc <__ajit_store_word_mmu_reg__>
    6104:	01 00 00 00 	nop 
    6108:	81 e8 00 00 	restore 
    610c:	81 c3 e0 08 	retl 
    6110:	01 00 00 00 	nop 

00006114 <__ajit_mmu_flush__>:
    6114:	9d e3 bf a0 	save  %sp, -96, %sp
    6118:	f0 27 a0 44 	st  %i0, [ %fp + 0x44 ]
    611c:	f2 27 a0 48 	st  %i1, [ %fp + 0x48 ]
    6120:	c2 07 a0 44 	ld  [ %fp + 0x44 ], %g1
    6124:	c4 07 a0 48 	ld  [ %fp + 0x48 ], %g2
    6128:	c2 a0 80 60 	sta  %g1, [ %g2 ] (3)
    612c:	81 e8 00 00 	restore 
    6130:	81 c3 e0 08 	retl 
    6134:	01 00 00 00 	nop 

00006138 <__ajit_mmu_probe__>:
    6138:	9d e3 bf 98 	save  %sp, -104, %sp
    613c:	f0 27 a0 44 	st  %i0, [ %fp + 0x44 ]
    6140:	c2 07 a0 44 	ld  [ %fp + 0x44 ], %g1
    6144:	fa 80 40 60 	lda  [ %g1 ] (3), %i5
    6148:	fa 27 bf fc 	st  %i5, [ %fp + -4 ]
    614c:	c2 07 bf fc 	ld  [ %fp + -4 ], %g1
    6150:	b0 10 00 01 	mov  %g1, %i0
    6154:	81 e8 00 00 	restore 
    6158:	81 c3 e0 08 	retl 
    615c:	01 00 00 00 	nop 

00006160 <__ajit_mmu_context_switch__>:
    6160:	9d e3 bf a0 	save  %sp, -96, %sp
    6164:	f0 27 a0 44 	st  %i0, [ %fp + 0x44 ]
    6168:	c2 07 a0 44 	ld  [ %fp + 0x44 ], %g1
    616c:	a0 10 00 01 	mov  %g1, %l0
    6170:	c0 a0 02 60 	sta  %g0, [ %g0 ] (19)
    6174:	81 d8 20 00 	flush  %g0
    6178:	c0 a0 00 60 	sta  %g0, [ %g0 ] (3)
    617c:	82 10 22 00 	mov  0x200, %g1
    6180:	e0 a0 40 80 	sta  %l0, [ %g1 ] #ASI_N
    6184:	c0 a0 02 60 	sta  %g0, [ %g0 ] (19)
    6188:	81 d8 20 00 	flush  %g0
    618c:	c0 a0 00 60 	sta  %g0, [ %g0 ] (3)
    6190:	81 e8 00 00 	restore 
    6194:	81 c3 e0 08 	retl 
    6198:	01 00 00 00 	nop 

0000619c <_ajit_va_l1_offset>:
    619c:	9d e3 bf a0 	save  %sp, -96, %sp
    61a0:	f0 27 a0 44 	st  %i0, [ %fp + 0x44 ]
    61a4:	c2 07 a0 44 	ld  [ %fp + 0x44 ], %g1
    61a8:	83 30 60 18 	srl  %g1, 0x18, %g1
    61ac:	b0 10 00 01 	mov  %g1, %i0
    61b0:	81 e8 00 00 	restore 
    61b4:	81 c3 e0 08 	retl 
    61b8:	01 00 00 00 	nop 

000061bc <_ajit_va_l2_offset>:
    61bc:	9d e3 bf a0 	save  %sp, -96, %sp
    61c0:	f0 27 a0 44 	st  %i0, [ %fp + 0x44 ]
    61c4:	c2 07 a0 44 	ld  [ %fp + 0x44 ], %g1
    61c8:	83 30 60 12 	srl  %g1, 0x12, %g1
    61cc:	82 08 60 1f 	and  %g1, 0x1f, %g1
    61d0:	b0 10 00 01 	mov  %g1, %i0
    61d4:	81 e8 00 00 	restore 
    61d8:	81 c3 e0 08 	retl 
    61dc:	01 00 00 00 	nop 

000061e0 <_ajit_va_l3_offset>:
    61e0:	9d e3 bf a0 	save  %sp, -96, %sp
    61e4:	f0 27 a0 44 	st  %i0, [ %fp + 0x44 ]
    61e8:	c2 07 a0 44 	ld  [ %fp + 0x44 ], %g1
    61ec:	83 30 60 0c 	srl  %g1, 0xc, %g1
    61f0:	82 08 60 1f 	and  %g1, 0x1f, %g1
    61f4:	b0 10 00 01 	mov  %g1, %i0
    61f8:	81 e8 00 00 	restore 
    61fc:	81 c3 e0 08 	retl 
    6200:	01 00 00 00 	nop 

00006204 <__ajit_make_pte__>:
    6204:	9d e3 bf 98 	save  %sp, -104, %sp
    6208:	f0 27 a0 44 	st  %i0, [ %fp + 0x44 ]
    620c:	88 10 00 19 	mov  %i1, %g4
    6210:	86 10 00 1a 	mov  %i2, %g3
    6214:	84 10 00 1b 	mov  %i3, %g2
    6218:	82 10 00 1c 	mov  %i4, %g1
    621c:	c8 2f a0 48 	stb  %g4, [ %fp + 0x48 ]
    6220:	c6 2f a0 4c 	stb  %g3, [ %fp + 0x4c ]
    6224:	c4 2f a0 50 	stb  %g2, [ %fp + 0x50 ]
    6228:	c2 2f a0 54 	stb  %g1, [ %fp + 0x54 ]
    622c:	c2 0f a0 54 	ldub  [ %fp + 0x54 ], %g1
    6230:	82 08 60 ff 	and  %g1, 0xff, %g1
    6234:	83 28 60 02 	sll  %g1, 2, %g1
    6238:	84 10 60 02 	or  %g1, 2, %g2
    623c:	c2 0f a0 50 	ldub  [ %fp + 0x50 ], %g1
    6240:	82 08 60 ff 	and  %g1, 0xff, %g1
    6244:	83 28 60 05 	sll  %g1, 5, %g1
    6248:	84 10 80 01 	or  %g2, %g1, %g2
    624c:	c2 0f a0 4c 	ldub  [ %fp + 0x4c ], %g1
    6250:	82 08 60 ff 	and  %g1, 0xff, %g1
    6254:	83 28 60 06 	sll  %g1, 6, %g1
    6258:	84 10 80 01 	or  %g2, %g1, %g2
    625c:	c2 0f a0 48 	ldub  [ %fp + 0x48 ], %g1
    6260:	82 08 60 ff 	and  %g1, 0xff, %g1
    6264:	83 28 60 07 	sll  %g1, 7, %g1
    6268:	82 10 80 01 	or  %g2, %g1, %g1
    626c:	84 10 00 01 	mov  %g1, %g2
    6270:	c2 07 a0 44 	ld  [ %fp + 0x44 ], %g1
    6274:	83 28 60 08 	sll  %g1, 8, %g1
    6278:	82 10 80 01 	or  %g2, %g1, %g1
    627c:	c2 27 bf fc 	st  %g1, [ %fp + -4 ]
    6280:	c2 07 bf fc 	ld  [ %fp + -4 ], %g1
    6284:	b0 10 00 01 	mov  %g1, %i0
    6288:	81 e8 00 00 	restore 
    628c:	81 c3 e0 08 	retl 
    6290:	01 00 00 00 	nop 

00006294 <__ajit_make_ptd__>:
    6294:	9d e3 bf 98 	save  %sp, -104, %sp
    6298:	f0 27 a0 44 	st  %i0, [ %fp + 0x44 ]
    629c:	c2 07 a0 44 	ld  [ %fp + 0x44 ], %g1
    62a0:	83 28 60 02 	sll  %g1, 2, %g1
    62a4:	82 10 60 01 	or  %g1, 1, %g1
    62a8:	c2 27 bf fc 	st  %g1, [ %fp + -4 ]
    62ac:	c2 07 bf fc 	ld  [ %fp + -4 ], %g1
    62b0:	b0 10 00 01 	mov  %g1, %i0
    62b4:	81 e8 00 00 	restore 
    62b8:	81 c3 e0 08 	retl 
    62bc:	01 00 00 00 	nop 

000062c0 <__ajit_flush_icache__>:
    62c0:	9d e3 bf a0 	save  %sp, -96, %sp
    62c4:	81 d8 20 00 	flush  %g0
    62c8:	81 e8 00 00 	restore 
    62cc:	81 c3 e0 08 	retl 
    62d0:	01 00 00 00 	nop 

000062d4 <__ajit_flush_dcache__>:
    62d4:	9d e3 bf a0 	save  %sp, -96, %sp
    62d8:	c0 a0 02 60 	sta  %g0, [ %g0 ] (19)
    62dc:	81 e8 00 00 	restore 
    62e0:	81 c3 e0 08 	retl 
    62e4:	01 00 00 00 	nop 

000062e8 <__ajit_write_timer_control_register__>:
    62e8:	9d e3 bf 98 	save  %sp, -104, %sp
    62ec:	f0 27 a0 44 	st  %i0, [ %fp + 0x44 ]
    62f0:	03 3f ff cc 	sethi  %hi(0xffff3000), %g1
    62f4:	82 10 61 00 	or  %g1, 0x100, %g1	! ffff3100 <CVTBUF+0xbfff30f8>
    62f8:	c2 27 bf fc 	st  %g1, [ %fp + -4 ]
    62fc:	d0 07 a0 44 	ld  [ %fp + 0x44 ], %o0
    6300:	d2 07 bf fc 	ld  [ %fp + -4 ], %o1
    6304:	7f ff ff 47 	call  6020 <__ajit_store_word_mmu_bypass__>
    6308:	01 00 00 00 	nop 
    630c:	81 e8 00 00 	restore 
    6310:	81 c3 e0 08 	retl 
    6314:	01 00 00 00 	nop 

00006318 <__ajit_read_timer_control_register__>:
    6318:	9d e3 bf 98 	save  %sp, -104, %sp
    631c:	03 3f ff cc 	sethi  %hi(0xffff3000), %g1
    6320:	90 10 61 00 	or  %g1, 0x100, %o0	! ffff3100 <CVTBUF+0xbfff30f8>
    6324:	7f ff ff 52 	call  606c <__ajit_load_word_mmu_bypass__>
    6328:	01 00 00 00 	nop 
    632c:	d0 27 bf fc 	st  %o0, [ %fp + -4 ]
    6330:	c2 07 bf fc 	ld  [ %fp + -4 ], %g1
    6334:	b0 10 00 01 	mov  %g1, %i0
    6338:	81 e8 00 00 	restore 
    633c:	81 c3 e0 08 	retl 
    6340:	01 00 00 00 	nop 

00006344 <__ajit_write_serial_control_register__>:
    6344:	9d e3 bf 98 	save  %sp, -104, %sp
    6348:	f0 27 a0 44 	st  %i0, [ %fp + 0x44 ]
    634c:	03 3f ff cc 	sethi  %hi(0xffff3000), %g1
    6350:	82 10 62 00 	or  %g1, 0x200, %g1	! ffff3200 <CVTBUF+0xbfff31f8>
    6354:	c2 27 bf fc 	st  %g1, [ %fp + -4 ]
    6358:	c2 07 a0 44 	ld  [ %fp + 0x44 ], %g1
    635c:	c4 07 bf fc 	ld  [ %fp + -4 ], %g2
    6360:	c2 a0 84 00 	sta  %g1, [ %g2 ] #ASI_SCRATCHPAD
    6364:	81 e8 00 00 	restore 
    6368:	81 c3 e0 08 	retl 
    636c:	01 00 00 00 	nop 

00006370 <__ajit_serial_configure__>:
    6370:	9d e3 bf 98 	save  %sp, -104, %sp
    6374:	86 10 00 18 	mov  %i0, %g3
    6378:	84 10 00 19 	mov  %i1, %g2
    637c:	82 10 00 1a 	mov  %i2, %g1
    6380:	c6 2f a0 44 	stb  %g3, [ %fp + 0x44 ]
    6384:	c4 2f a0 48 	stb  %g2, [ %fp + 0x48 ]
    6388:	c2 2f a0 4c 	stb  %g1, [ %fp + 0x4c ]
    638c:	c0 27 bf fc 	clr  [ %fp + -4 ]
    6390:	03 3f ff cc 	sethi  %hi(0xffff3000), %g1
    6394:	82 10 62 00 	or  %g1, 0x200, %g1	! ffff3200 <CVTBUF+0xbfff31f8>
    6398:	fa 80 44 00 	lda  [ %g1 ] #ASI_SCRATCHPAD, %i5
    639c:	fa 27 bf fc 	st  %i5, [ %fp + -4 ]
    63a0:	c2 0f a0 44 	ldub  [ %fp + 0x44 ], %g1
    63a4:	82 08 60 ff 	and  %g1, 0xff, %g1
    63a8:	80 a0 60 00 	cmp  %g1, 0
    63ac:	02 80 00 07 	be  63c8 <__ajit_serial_configure__+0x58>
    63b0:	01 00 00 00 	nop 
    63b4:	c2 07 bf fc 	ld  [ %fp + -4 ], %g1
    63b8:	82 10 60 01 	or  %g1, 1, %g1
    63bc:	c2 27 bf fc 	st  %g1, [ %fp + -4 ]
    63c0:	10 80 00 05 	b  63d4 <__ajit_serial_configure__+0x64>
    63c4:	01 00 00 00 	nop 
    63c8:	c2 07 bf fc 	ld  [ %fp + -4 ], %g1
    63cc:	82 08 7f fe 	and  %g1, -2, %g1
    63d0:	c2 27 bf fc 	st  %g1, [ %fp + -4 ]
    63d4:	c2 0f a0 48 	ldub  [ %fp + 0x48 ], %g1
    63d8:	82 08 60 ff 	and  %g1, 0xff, %g1
    63dc:	80 a0 60 00 	cmp  %g1, 0
    63e0:	02 80 00 07 	be  63fc <__ajit_serial_configure__+0x8c>
    63e4:	01 00 00 00 	nop 
    63e8:	c2 07 bf fc 	ld  [ %fp + -4 ], %g1
    63ec:	82 10 60 02 	or  %g1, 2, %g1
    63f0:	c2 27 bf fc 	st  %g1, [ %fp + -4 ]
    63f4:	10 80 00 05 	b  6408 <__ajit_serial_configure__+0x98>
    63f8:	01 00 00 00 	nop 
    63fc:	c2 07 bf fc 	ld  [ %fp + -4 ], %g1
    6400:	82 08 7f fd 	and  %g1, -3, %g1
    6404:	c2 27 bf fc 	st  %g1, [ %fp + -4 ]
    6408:	c2 0f a0 4c 	ldub  [ %fp + 0x4c ], %g1
    640c:	82 08 60 ff 	and  %g1, 0xff, %g1
    6410:	80 a0 60 00 	cmp  %g1, 0
    6414:	02 80 00 07 	be  6430 <__ajit_serial_configure__+0xc0>
    6418:	01 00 00 00 	nop 
    641c:	c2 07 bf fc 	ld  [ %fp + -4 ], %g1
    6420:	82 10 60 04 	or  %g1, 4, %g1
    6424:	c2 27 bf fc 	st  %g1, [ %fp + -4 ]
    6428:	10 80 00 05 	b  643c <__ajit_serial_configure__+0xcc>
    642c:	01 00 00 00 	nop 
    6430:	c2 07 bf fc 	ld  [ %fp + -4 ], %g1
    6434:	82 08 7f fb 	and  %g1, -5, %g1
    6438:	c2 27 bf fc 	st  %g1, [ %fp + -4 ]
    643c:	c2 07 bf fc 	ld  [ %fp + -4 ], %g1
    6440:	05 3f ff cc 	sethi  %hi(0xffff3000), %g2
    6444:	84 10 a2 00 	or  %g2, 0x200, %g2	! ffff3200 <CVTBUF+0xbfff31f8>
    6448:	c2 a0 84 00 	sta  %g1, [ %g2 ] #ASI_SCRATCHPAD
    644c:	81 e8 00 00 	restore 
    6450:	81 c3 e0 08 	retl 
    6454:	01 00 00 00 	nop 

00006458 <__ajit_read_serial_control_register__>:
    6458:	9d e3 bf 98 	save  %sp, -104, %sp
    645c:	03 3f ff cc 	sethi  %hi(0xffff3000), %g1
    6460:	82 10 62 00 	or  %g1, 0x200, %g1	! ffff3200 <CVTBUF+0xbfff31f8>
    6464:	c2 27 bf fc 	st  %g1, [ %fp + -4 ]
    6468:	c0 27 bf f8 	clr  [ %fp + -8 ]
    646c:	c2 07 bf fc 	ld  [ %fp + -4 ], %g1
    6470:	fa 80 44 00 	lda  [ %g1 ] #ASI_SCRATCHPAD, %i5
    6474:	fa 27 bf f8 	st  %i5, [ %fp + -8 ]
    6478:	c2 07 bf f8 	ld  [ %fp + -8 ], %g1
    647c:	b0 10 00 01 	mov  %g1, %i0
    6480:	81 e8 00 00 	restore 
    6484:	81 c3 e0 08 	retl 
    6488:	01 00 00 00 	nop 

0000648c <__ajit_write_serial_tx_register__>:
    648c:	9d e3 bf 98 	save  %sp, -104, %sp
    6490:	f0 27 a0 44 	st  %i0, [ %fp + 0x44 ]
    6494:	03 3f ff cc 	sethi  %hi(0xffff3000), %g1
    6498:	82 10 62 10 	or  %g1, 0x210, %g1	! ffff3210 <CVTBUF+0xbfff3208>
    649c:	c2 27 bf fc 	st  %g1, [ %fp + -4 ]
    64a0:	c2 07 a0 44 	ld  [ %fp + 0x44 ], %g1
    64a4:	c4 07 bf fc 	ld  [ %fp + -4 ], %g2
    64a8:	c2 a0 84 00 	sta  %g1, [ %g2 ] #ASI_SCRATCHPAD
    64ac:	81 e8 00 00 	restore 
    64b0:	81 c3 e0 08 	retl 
    64b4:	01 00 00 00 	nop 

000064b8 <__ajit_read_serial_tx_register__>:
    64b8:	9d e3 bf 98 	save  %sp, -104, %sp
    64bc:	03 3f ff cc 	sethi  %hi(0xffff3000), %g1
    64c0:	82 10 62 10 	or  %g1, 0x210, %g1	! ffff3210 <CVTBUF+0xbfff3208>
    64c4:	c2 27 bf fc 	st  %g1, [ %fp + -4 ]
    64c8:	c0 27 bf f8 	clr  [ %fp + -8 ]
    64cc:	c2 07 bf fc 	ld  [ %fp + -4 ], %g1
    64d0:	fa 80 44 00 	lda  [ %g1 ] #ASI_SCRATCHPAD, %i5
    64d4:	fa 27 bf f8 	st  %i5, [ %fp + -8 ]
    64d8:	c2 07 bf f8 	ld  [ %fp + -8 ], %g1
    64dc:	b0 10 00 01 	mov  %g1, %i0
    64e0:	81 e8 00 00 	restore 
    64e4:	81 c3 e0 08 	retl 
    64e8:	01 00 00 00 	nop 

000064ec <__ajit_read_serial_rx_register__>:
    64ec:	9d e3 bf 98 	save  %sp, -104, %sp
    64f0:	03 3f ff cc 	sethi  %hi(0xffff3000), %g1
    64f4:	82 10 62 20 	or  %g1, 0x220, %g1	! ffff3220 <CVTBUF+0xbfff3218>
    64f8:	c2 27 bf fc 	st  %g1, [ %fp + -4 ]
    64fc:	c0 27 bf f8 	clr  [ %fp + -8 ]
    6500:	c2 07 bf fc 	ld  [ %fp + -4 ], %g1
    6504:	fa 88 44 00 	lduba  [ %g1 ] #ASI_SCRATCHPAD, %i5
    6508:	fa 27 bf f8 	st  %i5, [ %fp + -8 ]
    650c:	c2 07 bf f8 	ld  [ %fp + -8 ], %g1
    6510:	b0 10 00 01 	mov  %g1, %i0
    6514:	81 e8 00 00 	restore 
    6518:	81 c3 e0 08 	retl 
    651c:	01 00 00 00 	nop 

00006520 <__ajit_serial_putchar__>:
    6520:	9d e3 bf 98 	save  %sp, -104, %sp
    6524:	82 10 00 18 	mov  %i0, %g1
    6528:	c2 2f a0 44 	stb  %g1, [ %fp + 0x44 ]
    652c:	c0 27 bf f8 	clr  [ %fp + -8 ]
    6530:	03 3f ff cc 	sethi  %hi(0xffff3000), %g1
    6534:	82 10 62 00 	or  %g1, 0x200, %g1	! ffff3200 <CVTBUF+0xbfff31f8>
    6538:	fa 80 44 00 	lda  [ %g1 ] #ASI_SCRATCHPAD, %i5
    653c:	fa 27 bf f8 	st  %i5, [ %fp + -8 ]
    6540:	c0 27 bf fc 	clr  [ %fp + -4 ]
    6544:	c2 07 bf f8 	ld  [ %fp + -8 ], %g1
    6548:	82 08 60 01 	and  %g1, 1, %g1
    654c:	80 a0 60 00 	cmp  %g1, 0
    6550:	02 80 00 0f 	be  658c <__ajit_serial_putchar__+0x6c>
    6554:	01 00 00 00 	nop 
    6558:	c2 07 bf f8 	ld  [ %fp + -8 ], %g1
    655c:	82 08 60 08 	and  %g1, 8, %g1
    6560:	80 a0 60 00 	cmp  %g1, 0
    6564:	12 80 00 0a 	bne  658c <__ajit_serial_putchar__+0x6c>
    6568:	01 00 00 00 	nop 
    656c:	c2 0f a0 44 	ldub  [ %fp + 0x44 ], %g1
    6570:	05 3f ff cc 	sethi  %hi(0xffff3000), %g2
    6574:	84 10 a2 10 	or  %g2, 0x210, %g2	! ffff3210 <CVTBUF+0xbfff3208>
    6578:	c2 a8 84 00 	stba  %g1, [ %g2 ] #ASI_SCRATCHPAD
    657c:	c2 0f a0 44 	ldub  [ %fp + 0x44 ], %g1
    6580:	83 28 60 18 	sll  %g1, 0x18, %g1
    6584:	83 38 60 18 	sra  %g1, 0x18, %g1
    6588:	c2 27 bf fc 	st  %g1, [ %fp + -4 ]
    658c:	c2 07 bf fc 	ld  [ %fp + -4 ], %g1
    6590:	b0 10 00 01 	mov  %g1, %i0
    6594:	81 e8 00 00 	restore 
    6598:	81 c3 e0 08 	retl 
    659c:	01 00 00 00 	nop 

000065a0 <__ajit_serial_getchar__>:
    65a0:	9d e3 bf 90 	save  %sp, -112, %sp
    65a4:	c0 27 bf fc 	clr  [ %fp + -4 ]
    65a8:	7f ff ff ac 	call  6458 <__ajit_read_serial_control_register__>
    65ac:	01 00 00 00 	nop 
    65b0:	d0 27 bf f8 	st  %o0, [ %fp + -8 ]
    65b4:	c2 07 bf f8 	ld  [ %fp + -8 ], %g1
    65b8:	82 08 60 02 	and  %g1, 2, %g1
    65bc:	80 a0 60 00 	cmp  %g1, 0
    65c0:	02 80 00 0e 	be  65f8 <__ajit_serial_getchar__+0x58>
    65c4:	01 00 00 00 	nop 
    65c8:	c2 07 bf f8 	ld  [ %fp + -8 ], %g1
    65cc:	82 08 60 10 	and  %g1, 0x10, %g1
    65d0:	80 a0 60 00 	cmp  %g1, 0
    65d4:	02 80 00 09 	be  65f8 <__ajit_serial_getchar__+0x58>
    65d8:	01 00 00 00 	nop 
    65dc:	c0 27 bf f4 	clr  [ %fp + -12 ]
    65e0:	03 3f ff cc 	sethi  %hi(0xffff3000), %g1
    65e4:	82 10 62 20 	or  %g1, 0x220, %g1	! ffff3220 <CVTBUF+0xbfff3218>
    65e8:	fa 88 44 00 	lduba  [ %g1 ] #ASI_SCRATCHPAD, %i5
    65ec:	fa 27 bf f4 	st  %i5, [ %fp + -12 ]
    65f0:	c2 07 bf f4 	ld  [ %fp + -12 ], %g1
    65f4:	c2 27 bf fc 	st  %g1, [ %fp + -4 ]
    65f8:	c2 07 bf fc 	ld  [ %fp + -4 ], %g1
    65fc:	b0 10 00 01 	mov  %g1, %i0
    6600:	81 e8 00 00 	restore 
    6604:	81 c3 e0 08 	retl 
    6608:	01 00 00 00 	nop 

0000660c <__ajit_serial_puts__>:
    660c:	9d e3 bf 98 	save  %sp, -104, %sp
    6610:	f0 27 a0 44 	st  %i0, [ %fp + 0x44 ]
    6614:	f2 27 a0 48 	st  %i1, [ %fp + 0x48 ]
    6618:	c0 27 bf fc 	clr  [ %fp + -4 ]
    661c:	10 80 00 16 	b  6674 <__ajit_serial_puts__+0x68>
    6620:	01 00 00 00 	nop 
    6624:	c0 27 bf f8 	clr  [ %fp + -8 ]
    6628:	10 80 00 0c 	b  6658 <__ajit_serial_puts__+0x4c>
    662c:	01 00 00 00 	nop 
    6630:	c2 07 bf fc 	ld  [ %fp + -4 ], %g1
    6634:	c4 07 a0 44 	ld  [ %fp + 0x44 ], %g2
    6638:	82 00 80 01 	add  %g2, %g1, %g1
    663c:	c2 08 40 00 	ldub  [ %g1 ], %g1
    6640:	83 28 60 18 	sll  %g1, 0x18, %g1
    6644:	83 38 60 18 	sra  %g1, 0x18, %g1
    6648:	90 10 00 01 	mov  %g1, %o0
    664c:	7f ff ff b5 	call  6520 <__ajit_serial_putchar__>
    6650:	01 00 00 00 	nop 
    6654:	d0 27 bf f8 	st  %o0, [ %fp + -8 ]
    6658:	c2 07 bf f8 	ld  [ %fp + -8 ], %g1
    665c:	80 a0 60 00 	cmp  %g1, 0
    6660:	02 bf ff f4 	be  6630 <__ajit_serial_puts__+0x24>
    6664:	01 00 00 00 	nop 
    6668:	c2 07 bf fc 	ld  [ %fp + -4 ], %g1
    666c:	82 00 60 01 	inc  %g1
    6670:	c2 27 bf fc 	st  %g1, [ %fp + -4 ]
    6674:	c4 07 bf fc 	ld  [ %fp + -4 ], %g2
    6678:	c2 07 a0 48 	ld  [ %fp + 0x48 ], %g1
    667c:	80 a0 80 01 	cmp  %g2, %g1
    6680:	0a bf ff e9 	bcs  6624 <__ajit_serial_puts__+0x18>
    6684:	01 00 00 00 	nop 
    6688:	81 e8 00 00 	restore 
    668c:	81 c3 e0 08 	retl 
    6690:	01 00 00 00 	nop 

00006694 <__ajit_serial_gets__>:
    6694:	9d e3 bf 98 	save  %sp, -104, %sp
    6698:	f0 27 a0 44 	st  %i0, [ %fp + 0x44 ]
    669c:	f2 27 a0 48 	st  %i1, [ %fp + 0x48 ]
    66a0:	c0 27 bf fc 	clr  [ %fp + -4 ]
    66a4:	10 80 00 14 	b  66f4 <__ajit_serial_gets__+0x60>
    66a8:	01 00 00 00 	nop 
    66ac:	c0 27 bf f8 	clr  [ %fp + -8 ]
    66b0:	10 80 00 05 	b  66c4 <__ajit_serial_gets__+0x30>
    66b4:	01 00 00 00 	nop 
    66b8:	7f ff ff ba 	call  65a0 <__ajit_serial_getchar__>
    66bc:	01 00 00 00 	nop 
    66c0:	d0 27 bf f8 	st  %o0, [ %fp + -8 ]
    66c4:	c2 07 bf f8 	ld  [ %fp + -8 ], %g1
    66c8:	80 a0 60 00 	cmp  %g1, 0
    66cc:	02 bf ff fb 	be  66b8 <__ajit_serial_gets__+0x24>
    66d0:	01 00 00 00 	nop 
    66d4:	c2 07 bf fc 	ld  [ %fp + -4 ], %g1
    66d8:	c4 07 a0 44 	ld  [ %fp + 0x44 ], %g2
    66dc:	82 00 80 01 	add  %g2, %g1, %g1
    66e0:	c4 07 bf f8 	ld  [ %fp + -8 ], %g2
    66e4:	c4 28 40 00 	stb  %g2, [ %g1 ]
    66e8:	c2 07 bf fc 	ld  [ %fp + -4 ], %g1
    66ec:	82 00 60 01 	inc  %g1
    66f0:	c2 27 bf fc 	st  %g1, [ %fp + -4 ]
    66f4:	c4 07 bf fc 	ld  [ %fp + -4 ], %g2
    66f8:	c2 07 a0 48 	ld  [ %fp + 0x48 ], %g1
    66fc:	80 a0 80 01 	cmp  %g2, %g1
    6700:	0a bf ff eb 	bcs  66ac <__ajit_serial_gets__+0x18>
    6704:	01 00 00 00 	nop 
    6708:	81 e8 00 00 	restore 
    670c:	81 c3 e0 08 	retl 
    6710:	01 00 00 00 	nop 

00006714 <__ajit_write_irc_control_register__>:
    6714:	9d e3 bf 98 	save  %sp, -104, %sp
    6718:	f0 27 a0 44 	st  %i0, [ %fp + 0x44 ]
    671c:	03 3f ff cc 	sethi  %hi(0xffff3000), %g1
    6720:	c2 27 bf fc 	st  %g1, [ %fp + -4 ]
    6724:	d0 07 a0 44 	ld  [ %fp + 0x44 ], %o0
    6728:	d2 07 bf fc 	ld  [ %fp + -4 ], %o1
    672c:	7f ff fe 3d 	call  6020 <__ajit_store_word_mmu_bypass__>
    6730:	01 00 00 00 	nop 
    6734:	81 e8 00 00 	restore 
    6738:	81 c3 e0 08 	retl 
    673c:	01 00 00 00 	nop 

00006740 <__ajit_read_irc_control_register__>:
    6740:	9d e3 bf 98 	save  %sp, -104, %sp
    6744:	03 3f ff cc 	sethi  %hi(0xffff3000), %g1
    6748:	c2 27 bf fc 	st  %g1, [ %fp + -4 ]
    674c:	d0 07 bf fc 	ld  [ %fp + -4 ], %o0
    6750:	7f ff fe 47 	call  606c <__ajit_load_word_mmu_bypass__>
    6754:	01 00 00 00 	nop 
    6758:	d0 27 bf f8 	st  %o0, [ %fp + -8 ]
    675c:	c2 07 bf f8 	ld  [ %fp + -8 ], %g1
    6760:	b0 10 00 01 	mov  %g1, %i0
    6764:	81 e8 00 00 	restore 
    6768:	81 c3 e0 08 	retl 
    676c:	01 00 00 00 	nop 

00006770 <__ajit_write_spi_master_register__>:
    6770:	9d e3 bf 98 	save  %sp, -104, %sp
    6774:	84 10 00 18 	mov  %i0, %g2
    6778:	82 10 00 19 	mov  %i1, %g1
    677c:	c4 2f a0 44 	stb  %g2, [ %fp + 0x44 ]
    6780:	c2 2f a0 48 	stb  %g1, [ %fp + 0x48 ]
    6784:	c2 0f a0 44 	ldub  [ %fp + 0x44 ], %g1
    6788:	82 08 60 ff 	and  %g1, 0xff, %g1
    678c:	83 28 60 02 	sll  %g1, 2, %g1
    6790:	84 10 00 01 	mov  %g1, %g2
    6794:	03 3f ff cc 	sethi  %hi(0xffff3000), %g1
    6798:	82 10 63 00 	or  %g1, 0x300, %g1	! ffff3300 <CVTBUF+0xbfff32f8>
    679c:	82 00 80 01 	add  %g2, %g1, %g1
    67a0:	c2 27 bf fc 	st  %g1, [ %fp + -4 ]
    67a4:	c2 0f a0 48 	ldub  [ %fp + 0x48 ], %g1
    67a8:	82 08 60 ff 	and  %g1, 0xff, %g1
    67ac:	90 10 00 01 	mov  %g1, %o0
    67b0:	d2 07 bf fc 	ld  [ %fp + -4 ], %o1
    67b4:	7f ff fe 1b 	call  6020 <__ajit_store_word_mmu_bypass__>
    67b8:	01 00 00 00 	nop 
    67bc:	81 e8 00 00 	restore 
    67c0:	81 c3 e0 08 	retl 
    67c4:	01 00 00 00 	nop 

000067c8 <__ajit_read_spi_master_register__>:
    67c8:	9d e3 bf 98 	save  %sp, -104, %sp
    67cc:	82 10 00 18 	mov  %i0, %g1
    67d0:	c2 2f a0 44 	stb  %g1, [ %fp + 0x44 ]
    67d4:	c2 0f a0 44 	ldub  [ %fp + 0x44 ], %g1
    67d8:	82 08 60 ff 	and  %g1, 0xff, %g1
    67dc:	83 28 60 02 	sll  %g1, 2, %g1
    67e0:	84 10 00 01 	mov  %g1, %g2
    67e4:	03 3f ff cc 	sethi  %hi(0xffff3000), %g1
    67e8:	82 10 63 00 	or  %g1, 0x300, %g1	! ffff3300 <CVTBUF+0xbfff32f8>
    67ec:	82 00 80 01 	add  %g2, %g1, %g1
    67f0:	c2 27 bf fc 	st  %g1, [ %fp + -4 ]
    67f4:	d0 07 bf fc 	ld  [ %fp + -4 ], %o0
    67f8:	7f ff fe 1d 	call  606c <__ajit_load_word_mmu_bypass__>
    67fc:	01 00 00 00 	nop 
    6800:	d0 27 bf f8 	st  %o0, [ %fp + -8 ]
    6804:	c2 07 bf f8 	ld  [ %fp + -8 ], %g1
    6808:	b0 10 00 01 	mov  %g1, %i0
    680c:	81 e8 00 00 	restore 
    6810:	81 c3 e0 08 	retl 
    6814:	01 00 00 00 	nop 

00006818 <__ajit_gpio_xfer__>:
    6818:	9d e3 bf 90 	save  %sp, -112, %sp
    681c:	82 10 00 18 	mov  %i0, %g1
    6820:	c2 2f a0 44 	stb  %g1, [ %fp + 0x44 ]
    6824:	c0 27 bf f4 	clr  [ %fp + -12 ]
    6828:	82 10 20 01 	mov  1, %g1
    682c:	c2 27 bf f8 	st  %g1, [ %fp + -8 ]
    6830:	c2 0f a0 44 	ldub  [ %fp + 0x44 ], %g1
    6834:	82 08 60 ff 	and  %g1, 0xff, %g1
    6838:	90 10 20 00 	clr  %o0
    683c:	92 10 00 01 	mov  %g1, %o1
    6840:	7f ff ff cc 	call  6770 <__ajit_write_spi_master_register__>
    6844:	01 00 00 00 	nop 
    6848:	82 10 20 13 	mov  0x13, %g1	! 13 <start+0x13>
    684c:	c2 2f bf f3 	stb  %g1, [ %fp + -13 ]
    6850:	c2 0f bf f3 	ldub  [ %fp + -13 ], %g1
    6854:	82 08 60 ff 	and  %g1, 0xff, %g1
    6858:	90 10 20 02 	mov  2, %o0
    685c:	92 10 00 01 	mov  %g1, %o1
    6860:	7f ff ff c4 	call  6770 <__ajit_write_spi_master_register__>
    6864:	01 00 00 00 	nop 
    6868:	82 10 21 00 	mov  0x100, %g1	! 100 <start+0x100>
    686c:	c2 27 bf fc 	st  %g1, [ %fp + -4 ]
    6870:	10 80 00 09 	b  6894 <__ajit_gpio_xfer__+0x7c>
    6874:	01 00 00 00 	nop 
    6878:	90 10 20 02 	mov  2, %o0	! 2 <start+0x2>
    687c:	7f ff ff d3 	call  67c8 <__ajit_read_spi_master_register__>
    6880:	01 00 00 00 	nop 
    6884:	d0 27 bf f8 	st  %o0, [ %fp + -8 ]
    6888:	c2 07 bf fc 	ld  [ %fp + -4 ], %g1
    688c:	82 00 7f ff 	add  %g1, -1, %g1
    6890:	c2 27 bf fc 	st  %g1, [ %fp + -4 ]
    6894:	c2 07 bf fc 	ld  [ %fp + -4 ], %g1
    6898:	85 38 60 1f 	sra  %g1, 0x1f, %g2
    689c:	c2 07 bf fc 	ld  [ %fp + -4 ], %g1
    68a0:	82 20 80 01 	sub  %g2, %g1, %g1
    68a4:	83 30 60 1f 	srl  %g1, 0x1f, %g1
    68a8:	84 08 60 ff 	and  %g1, 0xff, %g2
    68ac:	c2 07 bf f8 	ld  [ %fp + -8 ], %g1
    68b0:	82 08 80 01 	and  %g2, %g1, %g1
    68b4:	80 a0 60 00 	cmp  %g1, 0
    68b8:	12 bf ff f0 	bne  6878 <__ajit_gpio_xfer__+0x60>
    68bc:	01 00 00 00 	nop 
    68c0:	90 10 20 00 	clr  %o0	! 0 <start>
    68c4:	7f ff ff c1 	call  67c8 <__ajit_read_spi_master_register__>
    68c8:	01 00 00 00 	nop 
    68cc:	d0 27 bf f4 	st  %o0, [ %fp + -12 ]
    68d0:	c2 07 bf f4 	ld  [ %fp + -12 ], %g1
    68d4:	b0 10 00 01 	mov  %g1, %i0
    68d8:	81 e8 00 00 	restore 
    68dc:	81 c3 e0 08 	retl 
    68e0:	01 00 00 00 	nop 

000068e4 <__ajit_ta_0__>:
    68e4:	9d e3 bf a0 	save  %sp, -96, %sp
    68e8:	91 d0 20 00 	ta  0
    68ec:	01 00 00 00 	nop 
    68f0:	01 00 00 00 	nop 
    68f4:	81 e8 00 00 	restore 
    68f8:	81 c3 e0 08 	retl 
    68fc:	01 00 00 00 	nop 

00006900 <__ajit_fsqrtd__>:
    6900:	9d e3 bf a0 	save  %sp, -96, %sp
    6904:	f0 27 a0 44 	st  %i0, [ %fp + 0x44 ]
    6908:	f2 27 a0 48 	st  %i1, [ %fp + 0x48 ]
    690c:	c2 07 a0 44 	ld  [ %fp + 0x44 ], %g1
    6910:	c4 07 a0 48 	ld  [ %fp + 0x48 ], %g2
    6914:	c1 18 40 00 	ldd  [ %g1 ], %f0
    6918:	85 a0 05 40 	fsqrtd  %f0, %f2
    691c:	c5 38 80 00 	std  %f2, [ %g2 ]
    6920:	81 e8 00 00 	restore 
    6924:	81 c3 e0 08 	retl 
    6928:	01 00 00 00 	nop 

0000692c <__ajit_fsqrts__>:
    692c:	9d e3 bf a0 	save  %sp, -96, %sp
    6930:	f0 27 a0 44 	st  %i0, [ %fp + 0x44 ]
    6934:	f2 27 a0 48 	st  %i1, [ %fp + 0x48 ]
    6938:	c2 07 a0 44 	ld  [ %fp + 0x44 ], %g1
    693c:	c4 07 a0 48 	ld  [ %fp + 0x48 ], %g2
    6940:	c1 00 40 00 	ld  [ %g1 ], %f0
    6944:	83 a0 05 20 	fsqrts  %f0, %f1
    6948:	c3 20 80 00 	st  %f1, [ %g2 ]
    694c:	81 e8 00 00 	restore 
    6950:	81 c3 e0 08 	retl 
    6954:	01 00 00 00 	nop 

00006958 <__ajit_fitod__>:
    6958:	9d e3 bf a0 	save  %sp, -96, %sp
    695c:	f0 27 a0 44 	st  %i0, [ %fp + 0x44 ]
    6960:	f2 27 a0 48 	st  %i1, [ %fp + 0x48 ]
    6964:	c2 07 a0 44 	ld  [ %fp + 0x44 ], %g1
    6968:	c4 07 a0 48 	ld  [ %fp + 0x48 ], %g2
    696c:	c1 00 40 00 	ld  [ %g1 ], %f0
    6970:	85 a0 19 00 	fitod  %f0, %f2
    6974:	c5 38 80 00 	std  %f2, [ %g2 ]
    6978:	81 e8 00 00 	restore 
    697c:	81 c3 e0 08 	retl 
    6980:	01 00 00 00 	nop 

00006984 <__ajit_fitos__>:
    6984:	9d e3 bf a0 	save  %sp, -96, %sp
    6988:	f0 27 a0 44 	st  %i0, [ %fp + 0x44 ]
    698c:	f2 27 a0 48 	st  %i1, [ %fp + 0x48 ]
    6990:	c2 07 a0 44 	ld  [ %fp + 0x44 ], %g1
    6994:	c4 07 a0 48 	ld  [ %fp + 0x48 ], %g2
    6998:	c1 00 40 00 	ld  [ %g1 ], %f0
    699c:	83 a0 18 80 	fitos  %f0, %f1
    69a0:	c3 20 80 00 	st  %f1, [ %g2 ]
    69a4:	81 e8 00 00 	restore 
    69a8:	81 c3 e0 08 	retl 
    69ac:	01 00 00 00 	nop 

000069b0 <__ajit_fdtoi__>:
    69b0:	9d e3 bf a0 	save  %sp, -96, %sp
    69b4:	f0 27 a0 44 	st  %i0, [ %fp + 0x44 ]
    69b8:	f2 27 a0 48 	st  %i1, [ %fp + 0x48 ]
    69bc:	c2 07 a0 44 	ld  [ %fp + 0x44 ], %g1
    69c0:	c4 07 a0 48 	ld  [ %fp + 0x48 ], %g2
    69c4:	c1 18 40 00 	ldd  [ %g1 ], %f0
    69c8:	85 a0 1a 40 	fdtoi  %f0, %f2
    69cc:	c5 20 80 00 	st  %f2, [ %g2 ]
    69d0:	81 e8 00 00 	restore 
    69d4:	81 c3 e0 08 	retl 
    69d8:	01 00 00 00 	nop 

000069dc <__ajit_fstoi__>:
    69dc:	9d e3 bf a0 	save  %sp, -96, %sp
    69e0:	f0 27 a0 44 	st  %i0, [ %fp + 0x44 ]
    69e4:	f2 27 a0 48 	st  %i1, [ %fp + 0x48 ]
    69e8:	c2 07 a0 44 	ld  [ %fp + 0x44 ], %g1
    69ec:	c4 07 a0 48 	ld  [ %fp + 0x48 ], %g2
    69f0:	c1 00 40 00 	ld  [ %g1 ], %f0
    69f4:	83 a0 1a 20 	fstoi  %f0, %f1
    69f8:	c3 20 80 00 	st  %f1, [ %g2 ]
    69fc:	81 e8 00 00 	restore 
    6a00:	81 c3 e0 08 	retl 
    6a04:	01 00 00 00 	nop 

00006a08 <ajit_serial_init>:
    6a08:	9d e3 bf a0 	save  %sp, -96, %sp
    6a0c:	90 10 20 01 	mov  1, %o0
    6a10:	92 10 20 00 	clr  %o1
    6a14:	94 10 20 00 	clr  %o2
    6a18:	7f ff fe 56 	call  6370 <__ajit_serial_configure__>
    6a1c:	01 00 00 00 	nop 
    6a20:	81 e8 00 00 	restore 
    6a24:	81 c3 e0 08 	retl 
    6a28:	01 00 00 00 	nop 

00006a2c <ajit_barebones_clock>:
    6a2c:	9d e3 bf 90 	save  %sp, -112, %sp
    6a30:	7f ff fd 33 	call  5efc <__ajit_read_cycle_count_register_high__>
    6a34:	01 00 00 00 	nop 
    6a38:	d0 27 bf fc 	st  %o0, [ %fp + -4 ]
    6a3c:	7f ff fd 38 	call  5f1c <__ajit_read_cycle_count_register_low__>
    6a40:	01 00 00 00 	nop 
    6a44:	d0 27 bf f8 	st  %o0, [ %fp + -8 ]
    6a48:	c2 07 bf fc 	ld  [ %fp + -4 ], %g1
    6a4c:	85 28 60 18 	sll  %g1, 0x18, %g2
    6a50:	c2 07 bf f8 	ld  [ %fp + -8 ], %g1
    6a54:	83 30 60 08 	srl  %g1, 8, %g1
    6a58:	82 10 80 01 	or  %g2, %g1, %g1
    6a5c:	c2 27 bf f4 	st  %g1, [ %fp + -12 ]
    6a60:	c2 07 bf f4 	ld  [ %fp + -12 ], %g1
    6a64:	b0 10 00 01 	mov  %g1, %i0
    6a68:	81 e8 00 00 	restore 
    6a6c:	81 c3 e0 08 	retl 
    6a70:	01 00 00 00 	nop 
